gplink-2.2.34 (Jun  1 2022)
Listing File Generated: 2024-8-20  10:03:22
 
 
Address  Value    Disassembly              Source
-------  -----    -----------              ------
                                           ;--------------------------------------------------------
                                           ; external declarations
                                           ;--------------------------------------------------------
                                           	extern	__divulong
                                           	extern	_INDF0bits
                                           	extern	_INDF1bits
                                           	extern	_INDF2bits
                                           	extern	_HIBYTEbits
                                           	extern	_FSR0bits
                                           	extern	_FSR1bits
                                           	extern	_PCLbits
                                           	extern	_PFLAGbits
                                           	extern	_MCRbits
                                           	extern	_INDF3bits
                                           	extern	_INTEbits
                                           	extern	_INTFbits
                                           	extern	_DRVCRbits
                                           	extern	_P0KBCRbits
                                           	extern	_P1KBCRbits
                                           	extern	_P2KBCRbits
                                           	extern	_IOP0bits
                                           	extern	_OEP0bits
                                           	extern	_PUP0bits
                                           	extern	_PDP0bits
                                           	extern	_IOP1bits
                                           	extern	_OEP1bits
                                           	extern	_PUP1bits
                                           	extern	_PDP1bits
                                           	extern	_T0CRbits
                                           	extern	_T0CNTbits
                                           	extern	_T0LOADbits
                                           	extern	_T0DATAbits
                                           	extern	_T1CRbits
                                           	extern	_T1CNTbits
                                           	extern	_T1LOADbits
                                           	extern	_T1DATAbits
                                           	extern	_T2CRbits
                                           	extern	_T2CNTbits
                                           	extern	_T2LOADbits
                                           	extern	_T2DATAbits
                                           	extern	_T3CRbits
                                           	extern	_T3CNTbits
                                           	extern	_T3LOADbits
                                           	extern	_PWM0DRbits
                                           	extern	_PWM1DRbits
                                           	extern	_PWM2DRbits
                                           	extern	_PWMCR0bits
                                           	extern	_PWMCR1bits
                                           	extern	_OSCMRbits
                                           	extern	_LVDCRbits
                                           	extern	_ADCR0bits
                                           	extern	_ADCR1bits
                                           	extern	_ADCR2bits
                                           	extern	_OSADJCRbits
                                           	extern	_ADRHbits
                                           	extern	_ADRLbits
                                           	extern	_P0ADCRbits
                                           	extern	_P1ADCRbits
                                           	extern	_IOP2bits
                                           	extern	_OEP2bits
                                           	extern	_PUP2bits
                                           	extern	_PDP2bits
                                           	extern	_PMODbits
                                           	extern	_PWMCR3bits
                                           	extern	_PWMCR2bits
                                           	extern	_PFRCCRbits
                                           	extern	_PFRCCALbits
                                           	extern	_EECRbits
                                           	extern	_EEPRbits
                                           	extern	_EEARbits
                                           	extern	_EEDRHbits
                                           	extern	_EEDRLbits
                                           	extern	_DBGCRbits
                                           	extern	_DBGPRbits
                                           	extern	_HIRCCALbits
                                           	extern	_INDF0
                                           	extern	_INDF1
                                           	extern	_INDF2
                                           	extern	_HIBYTE
                                           	extern	_FSR0
                                           	extern	_FSR1
                                           	extern	_PCL
                                           	extern	_PFLAG
                                           	extern	_MCR
                                           	extern	_INDF3
                                           	extern	_INTE
                                           	extern	_INTF
                                           	extern	_DRVCR
                                           	extern	_P0KBCR
                                           	extern	_P1KBCR
                                           	extern	_P2KBCR
                                           	extern	_IOP0
                                           	extern	_OEP0
                                           	extern	_PUP0
                                           	extern	_PDP0
                                           	extern	_IOP1
                                           	extern	_OEP1
                                           	extern	_PUP1
                                           	extern	_PDP1
                                           	extern	_T0CR
                                           	extern	_T0CNT
                                           	extern	_T0LOAD
                                           	extern	_T0DATA
                                           	extern	_T1CR
                                           	extern	_T1CNT
                                           	extern	_T1LOAD
                                           	extern	_T1DATA
                                           	extern	_T2CR
                                           	extern	_T2CNT
                                           	extern	_T2LOAD
                                           	extern	_T2DATA
                                           	extern	_T3CR
                                           	extern	_T3CNT
                                           	extern	_T3LOAD
                                           	extern	_PWM0DR
                                           	extern	_PWM1DR
                                           	extern	_PWM2DR
                                           	extern	_PWMCR0
                                           	extern	_PWMCR1
                                           	extern	_OSCMR
                                           	extern	_LVDCR
                                           	extern	_ADCR0
                                           	extern	_ADCR1
                                           	extern	_ADCR2
                                           	extern	_OSADJCR
                                           	extern	_ADRH
                                           	extern	_ADRL
                                           	extern	_P0ADCR
                                           	extern	_P1ADCR
                                           	extern	_IOP2
                                           	extern	_OEP2
                                           	extern	_PUP2
                                           	extern	_PDP2
                                           	extern	_PMOD
                                           	extern	_PWMCR3
                                           	extern	_PWMCR2
                                           	extern	_PFRCCR
                                           	extern	_PFRCCAL
                                           	extern	_EECR
                                           	extern	_EEPR
                                           	extern	_EEAR
                                           	extern	_EEDRH
                                           	extern	_EEDRL
                                           	extern	_DBGCR
                                           	extern	_DBGPR
                                           	extern	_HIRCCAL
                                           	extern	__gptrget1
                                           	extern	__mulchar
                                           ;--------------------------------------------------------
                                           ; global declarations
                                           ;--------------------------------------------------------
                                           	global	_Sys_Init
                                           	global	_mode_breathing
                                           	global	___color_breathing
                                           	global	_mode_gradient
                                           	global	___color_gradient
                                           	global	_color_set_component_b
                                           	global	_color_set_component_g
                                           	global	_color_set_component_r
                                           	global	_color_show
                                           	global	_pwm_set_duty
                                           	global	_timer2_pwm_config
                                           	global	_timer1_pwm_config
                                           	global	_timer0_pwm_config
                                           	global	_key_scan
                                           	global	_IO_Init
                                           	global	_CLR_RAM
                                           	global	_delay_ms
                                           	global	___get_gradient_adjust_time
                                           	global	___get_time_interval
                                           	global	_main
                                           	global	_int_isr
                                           	global	_i
                                           	global	_abuf
                                           	global	_statusbuf
                                           	global	_left_key_val
                                           	global	_right_key_val
                                           	global	_cur_r
                                           	global	_cur_g
                                           	global	_cur_b
                                           	global	_cur_color_index
                                           	global	_color
                                           	global	_next_r
                                           	global	_next_g
                                           	global	_next_b
                                           	global	_tmp_r
                                           	global	_tmp_g
                                           	global	_tmp_b
                                           	global	_time_interval_r
                                           	global	_time_interval_g
                                           	global	_time_interval_b
                                           	global	_cur_mode_status
                                           	global	_flag1
                                           	global	_flag2
                                           	global	_color_buf
                                           
                                           	global STK06
                                           	global STK05
                                           	global STK04
                                           	global STK03
                                           	global STK02
                                           	global STK01
                                           	global STK00
                                           
                                           sharebank udata_ovr 0x0000
                                           STK06	res 1
                                           STK05	res 1
                                           STK04	res 1
                                           STK03	res 1
                                           STK02	res 1
                                           STK01	res 1
                                           STK00	res 1
                                           
                                           ;--------------------------------------------------------
                                           ; global definitions
                                           ;--------------------------------------------------------
                                           UD_MC32F7361_0	udata
                                           _i	res	2
                                           
                                           UD_MC32F7361_1	udata
                                           _abuf	res	1
                                           
                                           UD_MC32F7361_2	udata
                                           _statusbuf	res	1
                                           
                                           UD_MC32F7361_3	udata
                                           _left_key_val	res	1
                                           
                                           UD_MC32F7361_4	udata
                                           _right_key_val	res	1
                                           
                                           UD_MC32F7361_5	udata
                                           _cur_r	res	1
                                           
                                           UD_MC32F7361_6	udata
                                           _cur_g	res	1
                                           
                                           UD_MC32F7361_7	udata
                                           _cur_b	res	1
                                           
                                           UD_MC32F7361_8	udata
                                           _cur_color_index	res	1
                                           
                                           UD_MC32F7361_9	udata
                                           _color	res	3
                                           
                                           UD_MC32F7361_10	udata
                                           _next_r	res	1
                                           
                                           UD_MC32F7361_11	udata
                                           _next_g	res	1
                                           
                                           UD_MC32F7361_12	udata
                                           _next_b	res	1
                                           
                                           UD_MC32F7361_13	udata
                                           _tmp_r	res	2
                                           
                                           UD_MC32F7361_14	udata
                                           _tmp_g	res	2
                                           
                                           UD_MC32F7361_15	udata
                                           _tmp_b	res	2
                                           
                                           UD_MC32F7361_16	udata
                                           _time_interval_r	res	2
                                           
                                           UD_MC32F7361_17	udata
                                           _time_interval_g	res	2
                                           
                                           UD_MC32F7361_18	udata
                                           _time_interval_b	res	2
                                           
                                           UD_MC32F7361_19	udata
                                           _cur_mode_status	res	1
                                           
                                           UD_MC32F7361_20	udata
                                           _flag1	res	1
                                           
                                           UD_MC32F7361_21	udata
                                           _flag2	res	1
                                           
                                           ;--------------------------------------------------------
                                           ; absolute symbol definitions
                                           ;--------------------------------------------------------
                                           ;--------------------------------------------------------
                                           ; compiler-defined variables
                                           ;--------------------------------------------------------
                                           UDL_MC32F7361_0	udata
                                           r0x1020	res	1
                                           r0x101F	res	1
                                           r0x101E	res	1
                                           r0x101D	res	1
                                           r0x1021	res	1
                                           r0x1022	res	1
                                           r0x1023	res	1
                                           r0x1024	res	1
                                           r0x1025	res	1
                                           r0x1027	res	1
                                           r0x1026	res	1
                                           r0x1028	res	1
                                           r0x1029	res	1
                                           r0x102A	res	1
                                           r0x102B	res	1
                                           r0x102D	res	1
                                           r0x102F	res	1
                                           r0x102C	res	1
                                           r0x102E	res	1
                                           r0x1030	res	1
                                           r0x1032	res	1
                                           r0x1031	res	1
                                           r0x1033	res	1
                                           ;--------------------------------------------------------
                                           ; initialized data
                                           ;--------------------------------------------------------
                                           
                                           ID_MC32F7361_0	code
                                           _color_buf
0006db   00ff     dw      0xff             	dw 0xff
0006dc   0021     dw      0x21             	dw 0x21
0006dd   0017     dw      0x17             	dw 0x17
0006de   0066     dw      0x66             	dw 0x66
0006df   0027     dw      0x27             	dw 0x27
0006e0   00bf     dw      0xbf             	dw 0xbf
0006e1   0000     nop                      	dw 0x00
0006e2   0000     nop                      	dw 0x00
0006e3   00ff     dw      0xff             	dw 0xff
0006e4   0000     nop                      	dw 0x00
0006e5   00ff     dw      0xff             	dw 0xff
0006e6   00ff     dw      0xff             	dw 0xff
0006e7   0000     nop                      	dw 0x00
0006e8   00ff     dw      0xff             	dw 0xff
0006e9   0000     nop                      	dw 0x00
0006ea   00ff     dw      0xff             	dw 0xff
0006eb   0041     dw      0x41             	dw 0x41
0006ec   0000     nop                      	dw 0x00
0006ed   00ff     dw      0xff             	dw 0xff
0006ee   0019     dw      0x19             	dw 0x19
0006ef   0000     nop                      	dw 0x00
0006f0   00ff     dw      0xff             	dw 0xff
0006f1   0000     nop                      	dw 0x00
0006f2   0000     nop                      	dw 0x00
0006f3   00ff     dw      0xff             	dw 0xff
0006f4   0000     nop                      	dw 0x00
0006f5   0020     dw      0x20             	dw 0x20
0006f6   00ff     dw      0xff             	dw 0xff
0006f7   0000     nop                      	dw 0x00
0006f8   00ff     dw      0xff             	dw 0xff
                                           
                                           
                                           ;@Allocation info for local variables in function 'delay_ms'
                                           ;@delay_ms Sys_Init                  Allocated to registers ;size:2
                                           ;@delay_ms CLR_RAM                   Allocated to registers ;size:2
                                           ;@delay_ms IO_Init                   Allocated to registers ;size:2
                                           ;@delay_ms key_scan                  Allocated to registers ;size:2
                                           ;@delay_ms timer0_pwm_config         Allocated to registers ;size:2
                                           ;@delay_ms timer1_pwm_config         Allocated to registers ;size:2
                                           ;@delay_ms timer2_pwm_config         Allocated to registers ;size:2
                                           ;@delay_ms pwm_set_duty              Allocated to registers ;size:2
                                           ;@delay_ms color_set_component_r     Allocated to registers ;size:2
                                           ;@delay_ms color_set_component_g     Allocated to registers ;size:2
                                           ;@delay_ms color_set_component_b     Allocated to registers ;size:2
                                           ;@delay_ms color_show                Allocated to registers ;size:2
                                           ;@delay_ms __color_gradient          Allocated to registers ;size:2
                                           ;@delay_ms mode_gradient             Allocated to registers ;size:2
                                           ;@delay_ms __color_breathing         Allocated to registers ;size:2
                                           ;@delay_ms mode_breathing            Allocated to registers ;size:2
                                           ;@delay_ms INDF0bits                 Allocated to registers ;size:1
                                           ;@delay_ms INDF1bits                 Allocated to registers ;size:1
                                           ;@delay_ms INDF2bits                 Allocated to registers ;size:1
                                           ;@delay_ms HIBYTEbits                Allocated to registers ;size:1
                                           ;@delay_ms FSR0bits                  Allocated to registers ;size:1
                                           ;@delay_ms FSR1bits                  Allocated to registers ;size:1
                                           ;@delay_ms PCLbits                   Allocated to registers ;size:1
                                           ;@delay_ms PFLAGbits                 Allocated to registers ;size:1
                                           ;@delay_ms MCRbits                   Allocated to registers ;size:1
                                           ;@delay_ms INDF3bits                 Allocated to registers ;size:1
                                           ;@delay_ms INTEbits                  Allocated to registers ;size:1
                                           ;@delay_ms INTFbits                  Allocated to registers ;size:1
                                           ;@delay_ms DRVCRbits                 Allocated to registers ;size:1
                                           ;@delay_ms P0KBCRbits                Allocated to registers ;size:1
                                           ;@delay_ms P1KBCRbits                Allocated to registers ;size:1
                                           ;@delay_ms P2KBCRbits                Allocated to registers ;size:1
                                           ;@delay_ms IOP0bits                  Allocated to registers ;size:1
                                           ;@delay_ms OEP0bits                  Allocated to registers ;size:1
                                           ;@delay_ms PUP0bits                  Allocated to registers ;size:1
                                           ;@delay_ms PDP0bits                  Allocated to registers ;size:1
                                           ;@delay_ms IOP1bits                  Allocated to registers ;size:1
                                           ;@delay_ms OEP1bits                  Allocated to registers ;size:1
                                           ;@delay_ms PUP1bits                  Allocated to registers ;size:1
                                           ;@delay_ms PDP1bits                  Allocated to registers ;size:1
                                           ;@delay_ms T0CRbits                  Allocated to registers ;size:1
                                           ;@delay_ms T0CNTbits                 Allocated to registers ;size:1
                                           ;@delay_ms T0LOADbits                Allocated to registers ;size:1
                                           ;@delay_ms T0DATAbits                Allocated to registers ;size:1
                                           ;@delay_ms T1CRbits                  Allocated to registers ;size:1
                                           ;@delay_ms T1CNTbits                 Allocated to registers ;size:1
                                           ;@delay_ms T1LOADbits                Allocated to registers ;size:1
                                           ;@delay_ms T1DATAbits                Allocated to registers ;size:1
                                           ;@delay_ms T2CRbits                  Allocated to registers ;size:1
                                           ;@delay_ms T2CNTbits                 Allocated to registers ;size:1
                                           ;@delay_ms T2LOADbits                Allocated to registers ;size:1
                                           ;@delay_ms T2DATAbits                Allocated to registers ;size:1
                                           ;@delay_ms T3CRbits                  Allocated to registers ;size:1
                                           ;@delay_ms T3CNTbits                 Allocated to registers ;size:1
                                           ;@delay_ms T3LOADbits                Allocated to registers ;size:1
                                           ;@delay_ms PWM0DRbits                Allocated to registers ;size:1
                                           ;@delay_ms PWM1DRbits                Allocated to registers ;size:1
                                           ;@delay_ms PWM2DRbits                Allocated to registers ;size:1
                                           ;@delay_ms PWMCR0bits                Allocated to registers ;size:1
                                           ;@delay_ms PWMCR1bits                Allocated to registers ;size:1
                                           ;@delay_ms OSCMRbits                 Allocated to registers ;size:1
                                           ;@delay_ms LVDCRbits                 Allocated to registers ;size:1
                                           ;@delay_ms ADCR0bits                 Allocated to registers ;size:1
                                           ;@delay_ms ADCR1bits                 Allocated to registers ;size:1
                                           ;@delay_ms ADCR2bits                 Allocated to registers ;size:1
                                           ;@delay_ms OSADJCRbits               Allocated to registers ;size:1
                                           ;@delay_ms ADRHbits                  Allocated to registers ;size:1
                                           ;@delay_ms ADRLbits                  Allocated to registers ;size:1
                                           ;@delay_ms P0ADCRbits                Allocated to registers ;size:1
                                           ;@delay_ms P1ADCRbits                Allocated to registers ;size:1
                                           ;@delay_ms IOP2bits                  Allocated to registers ;size:1
                                           ;@delay_ms OEP2bits                  Allocated to registers ;size:1
                                           ;@delay_ms PUP2bits                  Allocated to registers ;size:1
                                           ;@delay_ms PDP2bits                  Allocated to registers ;size:1
                                           ;@delay_ms PMODbits                  Allocated to registers ;size:1
                                           ;@delay_ms PWMCR3bits                Allocated to registers ;size:1
                                           ;@delay_ms PWMCR2bits                Allocated to registers ;size:1
                                           ;@delay_ms PFRCCRbits                Allocated to registers ;size:1
                                           ;@delay_ms PFRCCALbits               Allocated to registers ;size:1
                                           ;@delay_ms EECRbits                  Allocated to registers ;size:1
                                           ;@delay_ms EEPRbits                  Allocated to registers ;size:1
                                           ;@delay_ms EEARbits                  Allocated to registers ;size:1
                                           ;@delay_ms EEDRHbits                 Allocated to registers ;size:1
                                           ;@delay_ms EEDRLbits                 Allocated to registers ;size:1
                                           ;@delay_ms DBGCRbits                 Allocated to registers ;size:1
                                           ;@delay_ms DBGPRbits                 Allocated to registers ;size:1
                                           ;@delay_ms HIRCCALbits               Allocated to registers ;size:1
                                           ;@delay_ms i                         Allocated to registers ;size:2
                                           ;@delay_ms abuf                      Allocated to registers ;size:1
                                           ;@delay_ms statusbuf                 Allocated to registers ;size:1
                                           ;@delay_ms left_key_val              Allocated to registers ;size:1
                                           ;@delay_ms right_key_val             Allocated to registers ;size:1
                                           ;@delay_ms cur_r                     Allocated to registers ;size:1
                                           ;@delay_ms cur_g                     Allocated to registers ;size:1
                                           ;@delay_ms cur_b                     Allocated to registers ;size:1
                                           ;@delay_ms cur_color_index           Allocated to registers ;size:1
                                           ;@delay_ms color                     Allocated to registers ;size:3
                                           ;@delay_ms next_r                    Allocated to registers ;size:1
                                           ;@delay_ms next_g                    Allocated to registers ;size:1
                                           ;@delay_ms next_b                    Allocated to registers ;size:1
                                           ;@delay_ms tmp_r                     Allocated to registers ;size:2
                                           ;@delay_ms tmp_g                     Allocated to registers ;size:2
                                           ;@delay_ms tmp_b                     Allocated to registers ;size:2
                                           ;@delay_ms time_interval_r           Allocated to registers ;size:2
                                           ;@delay_ms time_interval_g           Allocated to registers ;size:2
                                           ;@delay_ms time_interval_b           Allocated to registers ;size:2
                                           ;@delay_ms cur_mode_status           Allocated to registers ;size:1
                                           ;@delay_ms flag1                     Allocated to registers ;size:1
                                           ;@delay_ms flag2                     Allocated to registers ;size:1
                                           ;@delay_ms xms                       Allocated to registers ;size:4
                                           ;@delay_ms i                         Allocated to registers r0x1021 r0x1022 ;size:2
                                           ;@delay_ms INDF0                     Allocated to registers ;size:1
                                           ;@delay_ms INDF1                     Allocated to registers ;size:1
                                           ;@delay_ms INDF2                     Allocated to registers ;size:1
                                           ;@delay_ms HIBYTE                    Allocated to registers ;size:1
                                           ;@delay_ms FSR0                      Allocated to registers ;size:1
                                           ;@delay_ms FSR1                      Allocated to registers ;size:1
                                           ;@delay_ms PCL                       Allocated to registers ;size:1
                                           ;@delay_ms PFLAG                     Allocated to registers ;size:1
                                           ;@delay_ms MCR                       Allocated to registers ;size:1
                                           ;@delay_ms INDF3                     Allocated to registers ;size:1
                                           ;@delay_ms INTE                      Allocated to registers ;size:1
                                           ;@delay_ms INTF                      Allocated to registers ;size:1
                                           ;@delay_ms DRVCR                     Allocated to registers ;size:1
                                           ;@delay_ms P0KBCR                    Allocated to registers ;size:1
                                           ;@delay_ms P1KBCR                    Allocated to registers ;size:1
                                           ;@delay_ms P2KBCR                    Allocated to registers ;size:1
                                           ;@delay_ms IOP0                      Allocated to registers ;size:1
                                           ;@delay_ms OEP0                      Allocated to registers ;size:1
                                           ;@delay_ms PUP0                      Allocated to registers ;size:1
                                           ;@delay_ms PDP0                      Allocated to registers ;size:1
                                           ;@delay_ms IOP1                      Allocated to registers ;size:1
                                           ;@delay_ms OEP1                      Allocated to registers ;size:1
                                           ;@delay_ms PUP1                      Allocated to registers ;size:1
                                           ;@delay_ms PDP1                      Allocated to registers ;size:1
                                           ;@delay_ms T0CR                      Allocated to registers ;size:1
                                           ;@delay_ms T0CNT                     Allocated to registers ;size:1
                                           ;@delay_ms T0LOAD                    Allocated to registers ;size:1
                                           ;@delay_ms T0DATA                    Allocated to registers ;size:1
                                           ;@delay_ms T1CR                      Allocated to registers ;size:1
                                           ;@delay_ms T1CNT                     Allocated to registers ;size:1
                                           ;@delay_ms T1LOAD                    Allocated to registers ;size:1
                                           ;@delay_ms T1DATA                    Allocated to registers ;size:1
                                           ;@delay_ms T2CR                      Allocated to registers ;size:1
                                           ;@delay_ms T2CNT                     Allocated to registers ;size:1
                                           ;@delay_ms T2LOAD                    Allocated to registers ;size:1
                                           ;@delay_ms T2DATA                    Allocated to registers ;size:1
                                           ;@delay_ms T3CR                      Allocated to registers ;size:1
                                           ;@delay_ms T3CNT                     Allocated to registers ;size:1
                                           ;@delay_ms T3LOAD                    Allocated to registers ;size:1
                                           ;@delay_ms PWM0DR                    Allocated to registers ;size:1
                                           ;@delay_ms PWM1DR                    Allocated to registers ;size:1
                                           ;@delay_ms PWM2DR                    Allocated to registers ;size:1
                                           ;@delay_ms PWMCR0                    Allocated to registers ;size:1
                                           ;@delay_ms PWMCR1                    Allocated to registers ;size:1
                                           ;@delay_ms OSCMR                     Allocated to registers ;size:1
                                           ;@delay_ms LVDCR                     Allocated to registers ;size:1
                                           ;@delay_ms ADCR0                     Allocated to registers ;size:1
                                           ;@delay_ms ADCR1                     Allocated to registers ;size:1
                                           ;@delay_ms ADCR2                     Allocated to registers ;size:1
                                           ;@delay_ms OSADJCR                   Allocated to registers ;size:1
                                           ;@delay_ms ADRH                      Allocated to registers ;size:1
                                           ;@delay_ms ADRL                      Allocated to registers ;size:1
                                           ;@delay_ms P0ADCR                    Allocated to registers ;size:1
                                           ;@delay_ms P1ADCR                    Allocated to registers ;size:1
                                           ;@delay_ms IOP2                      Allocated to registers ;size:1
                                           ;@delay_ms OEP2                      Allocated to registers ;size:1
                                           ;@delay_ms PUP2                      Allocated to registers ;size:1
                                           ;@delay_ms PDP2                      Allocated to registers ;size:1
                                           ;@delay_ms PMOD                      Allocated to registers ;size:1
                                           ;@delay_ms PWMCR3                    Allocated to registers ;size:1
                                           ;@delay_ms PWMCR2                    Allocated to registers ;size:1
                                           ;@delay_ms PFRCCR                    Allocated to registers ;size:1
                                           ;@delay_ms PFRCCAL                   Allocated to registers ;size:1
                                           ;@delay_ms EECR                      Allocated to registers ;size:1
                                           ;@delay_ms EEPR                      Allocated to registers ;size:1
                                           ;@delay_ms EEAR                      Allocated to registers ;size:1
                                           ;@delay_ms EEDRH                     Allocated to registers ;size:1
                                           ;@delay_ms EEDRL                     Allocated to registers ;size:1
                                           ;@delay_ms DBGCR                     Allocated to registers ;size:1
                                           ;@delay_ms DBGPR                     Allocated to registers ;size:1
                                           ;@delay_ms HIRCCAL                   Allocated to registers ;size:1
                                           ;@end Allocation info for local variables in function 'delay_ms';
                                           ;@Allocation info for local variables in function 'CLR_RAM'
                                           ;@end Allocation info for local variables in function 'CLR_RAM';
                                           ;@Allocation info for local variables in function 'IO_Init'
                                           ;@end Allocation info for local variables in function 'IO_Init';
                                           ;@Allocation info for local variables in function 'key_scan'
                                           ;@end Allocation info for local variables in function 'key_scan';
                                           ;@Allocation info for local variables in function 'timer0_pwm_config'
                                           ;@end Allocation info for local variables in function 'timer0_pwm_config';
                                           ;@Allocation info for local variables in function 'timer1_pwm_config'
                                           ;@end Allocation info for local variables in function 'timer1_pwm_config';
                                           ;@Allocation info for local variables in function 'timer2_pwm_config'
                                           ;@end Allocation info for local variables in function 'timer2_pwm_config';
                                           ;@Allocation info for local variables in function 'pwm_set_duty'
                                           ;@pwm_set_duty duty                      Allocated to registers r0x101E ;size:1
                                           ;@pwm_set_duty pwm_x                     Allocated to registers r0x101D ;size:1
                                           ;@end Allocation info for local variables in function 'pwm_set_duty';
                                           ;@Allocation info for local variables in function 'color_show'
                                           ;@color_show rgb_val                   Allocated to registers r0x1022 r0x1021 r0x1020 ;size:3
                                           ;@end Allocation info for local variables in function 'color_show';
                                           ;@Allocation info for local variables in function 'color_set_component_r'
                                           ;@color_set_component_r component_r_val           Allocated to registers r0x101F ;size:1
                                           ;@end Allocation info for local variables in function 'color_set_component_r';
                                           ;@Allocation info for local variables in function 'color_set_component_g'
                                           ;@color_set_component_g component_g_val           Allocated to registers r0x101F ;size:1
                                           ;@end Allocation info for local variables in function 'color_set_component_g';
                                           ;@Allocation info for local variables in function 'color_set_component_b'
                                           ;@color_set_component_b component_b_val           Allocated to registers r0x101F ;size:1
                                           ;@end Allocation info for local variables in function 'color_set_component_b';
                                           ;@Allocation info for local variables in function '__get_gradient_adjust_time'
                                           ;@__get_gradient_adjust_time color_component           Allocated to registers r0x101D ;size:1
                                           ;@end Allocation info for local variables in function '__get_gradient_adjust_time';
                                           ;@Allocation info for local variables in function '__color_gradient'
                                           ;@__color_gradient next_color                Allocated to registers r0x1027 r0x1026 r0x1025 ;size:3
                                           ;@__color_gradient diff_r                    Allocated to registers r0x1027 ;size:1
                                           ;@__color_gradient diff_g                    Allocated to registers r0x1026 ;size:1
                                           ;@__color_gradient diff_b                    Allocated to registers r0x1025 ;size:1
                                           ;@__color_gradient i                         Allocated to registers r0x1027 r0x1026 ;size:2
                                           ;@end Allocation info for local variables in function '__color_gradient';
                                           ;@Allocation info for local variables in function 'mode_gradient'
                                           ;@end Allocation info for local variables in function 'mode_gradient';
                                           ;@Allocation info for local variables in function '__get_time_interval'
                                           ;@__get_time_interval color_component           Allocated to registers r0x101E ;size:1
                                           ;@__get_time_interval light_on_off              Allocated to registers r0x101D ;size:1
                                           ;@end Allocation info for local variables in function '__get_time_interval';
                                           ;@Allocation info for local variables in function '__color_breathing'
                                           ;@__color_breathing next_color                Allocated to registers r0x1028 r0x1027 r0x1026 ;size:3
                                           ;@end Allocation info for local variables in function '__color_breathing';
                                           ;@Allocation info for local variables in function 'mode_breathing'
                                           ;@end Allocation info for local variables in function 'mode_breathing';
                                           ;@Allocation info for local variables in function 'Sys_Init'
                                           ;@end Allocation info for local variables in function 'Sys_Init';
                                           ;@Allocation info for local variables in function 'main'
                                           ;@end Allocation info for local variables in function 'main';
                                           ;@Allocation info for local variables in function 'int_isr'
                                           ;@end Allocation info for local variables in function 'int_isr';
                                           
                                           ;--------------------------------------------------------
                                           ; overlayable items in internal ram 
                                           ;--------------------------------------------------------
                                           ;	udata_ovr
                                           ;--------------------------------------------------------
                                           ; reset vector 
                                           ;--------------------------------------------------------
                                           STARTUP	code 0x0000
000000   a010     goto    0x10             	goto	_main
                                           ;--------------------------------------------------------
                                           ; interrupt and initialization code
                                           ;--------------------------------------------------------
                                           c_interrupt	code	0x8
                                           __sdcc_interrupt
                                           ;***
                                           ;  pBlock Stats: dbName = I
                                           ;***
                                           ;entry:  _int_isr	;Function start
                                           ; 0 exit points
                                           ;; Starting pCode block
                                           _int_isr	;Function start
                                           ; 0 exit points
                                           ;	.line	1270; "MC32F7361.c"	__endasm;
                                           	;
000008   5644     movra   0x44             	movra	_abuf;
000009   4587     swapar  0x187            	swapar	_PFLAG;
00000a   5645     movra   0x45             	movra	_statusbuf;
                                           	
                                           ;	.line	1283; "MC32F7361.c"	__endasm;
                                           	;
00000b   4445     swapar  0x45             	swapar	_statusbuf;
00000c   5787     movra   0x187            	movra	_PFLAG;
00000d   4644     swapr   0x44             	swapr	_abuf;
00000e   4444     swapar  0x44             	swapar	_abuf;
                                           	
                                           END_OF_INTERRUPT
                                           ;	.line	1284; "MC32F7361.c"	}
00000f   000d     retie                    	RETIE	
                                           
                                           ;--------------------------------------------------------
                                           ; code
                                           ;--------------------------------------------------------
                                           code_MC32F7361	code
                                           ;***
                                           ;  pBlock Stats: dbName = M
                                           ;***
                                           ;entry:  _main	;Function start
                                           ; 2 exit points
                                           ;has an exit
                                           ;functions called:
                                           ;   _Sys_Init
                                           ;   _color_show
                                           ;   _key_scan
                                           ;   _color_show
                                           ;   _key_scan
                                           ;   _mode_gradient
                                           ;   _mode_breathing
                                           ;   __mulchar
                                           ;   __gptrget1
                                           ;   __mulchar
                                           ;   __gptrget1
                                           ;   __mulchar
                                           ;   __gptrget1
                                           ;   _color_show
                                           ;   _key_scan
                                           ;   _color_show
                                           ;   _Sys_Init
                                           ;   _color_show
                                           ;   _key_scan
                                           ;   _color_show
                                           ;   _key_scan
                                           ;   _mode_gradient
                                           ;   _mode_breathing
                                           ;   __mulchar
                                           ;   __gptrget1
                                           ;   __mulchar
                                           ;   __gptrget1
                                           ;   __mulchar
                                           ;   __gptrget1
                                           ;   _color_show
                                           ;   _key_scan
                                           ;   _color_show
                                           ;5 compiler assigned registers:
                                           ;   r0x1031
                                           ;   r0x1032
                                           ;   r0x1033
                                           ;   STK01
                                           ;   STK00
                                           ;; Starting pCode block
                                           _main	;Function start
                                           ; 2 exit points
                                           ;	.line	1032; "MC32F7361.c"	Sys_Init();
000010   80de     call    0xde             	CALL	_Sys_Init
                                           ;;gen.c:6570: size=0, offset=0, AOP_TYPE(res)=8
                                           ;	.line	1034; "MC32F7361.c"	color[0] = 0x00;
000011   7633     clrr    0x33             	CLRR	(_color + 0)
                                           ;;gen.c:6570: size=0, offset=0, AOP_TYPE(res)=8
                                           ;	.line	1035; "MC32F7361.c"	color[1] = 0x00;
000012   7634     clrr    0x34             	CLRR	(_color + 1)
                                           ;;gen.c:6570: size=0, offset=0, AOP_TYPE(res)=8
                                           ;	.line	1036; "MC32F7361.c"	color[2] = 0x00;
000013   7635     clrr    0x35             	CLRR	(_color + 2)
                                           ;	.line	1037; "MC32F7361.c"	color_show(color);   // 
000014   3c00     movai   0                	MOVAI	high (_color + 0)
000015   561c     movra   0x1c             	MOVRA	r0x1031
000016   3c33     movai   0x33             	MOVAI	(_color + 0)
000017   561b     movra   0x1b             	MOVRA	r0x1032
000018   761d     clrr    0x1d             	CLRR	r0x1033
000019   581b     movar   0x1b             	MOVAR	r0x1032
00001a   5605     movra   0x5              	MOVRA	STK01
00001b   581c     movar   0x1c             	MOVAR	r0x1031
00001c   5606     movra   0x6              	MOVRA	STK00
00001d   3c00     movai   0                	MOVAI	0x00
00001e   8550     call    0x550            	CALL	_color_show
                                           ;	.line	1038; "MC32F7361.c"	cur_color_index = 0; // 0
00001f   764b     clrr    0x4b             	CLRR	_cur_color_index
                                           _00900_DS_
                                           ;	.line	1071; "MC32F7361.c"	key_scan(); //  (20ms)
000020   85b3     call    0x5b3            	CALL	_key_scan
                                           ;	.line	1074; "MC32F7361.c"	if (RIGHT_KEY_UP == right_key_val)
000021   5847     movar   0x47             	MOVAR	_right_key_val
000022   3904     xorai   0x4              	XORAI	0x04
000023   e587     jbset   0x187, 0x2       	JBSET	PFLAG,2
000024   a03b     goto    0x3b             	GOTO	_00868_DS_
                                           ;;gen.c:6570: size=0, offset=0, AOP_TYPE(res)=8
                                           ;	.line	1077; "MC32F7361.c"	color[0] = 0x00;
000025   7633     clrr    0x33             	CLRR	(_color + 0)
                                           ;;gen.c:6570: size=0, offset=0, AOP_TYPE(res)=8
                                           ;	.line	1078; "MC32F7361.c"	color[1] = 0x00;
000026   7634     clrr    0x34             	CLRR	(_color + 1)
                                           ;;gen.c:6570: size=0, offset=0, AOP_TYPE(res)=8
                                           ;	.line	1079; "MC32F7361.c"	color[2] = 0x00;
000027   7635     clrr    0x35             	CLRR	(_color + 2)
                                           ;	.line	1080; "MC32F7361.c"	color_show(color); // 
000028   3c00     movai   0                	MOVAI	high (_color + 0)
000029   561c     movra   0x1c             	MOVRA	r0x1031
00002a   3c33     movai   0x33             	MOVAI	(_color + 0)
00002b   561b     movra   0x1b             	MOVRA	r0x1032
00002c   761d     clrr    0x1d             	CLRR	r0x1033
00002d   581b     movar   0x1b             	MOVAR	r0x1032
00002e   5605     movra   0x5              	MOVRA	STK01
00002f   581c     movar   0x1c             	MOVAR	r0x1031
000030   5606     movra   0x6              	MOVRA	STK00
000031   3c00     movai   0                	MOVAI	0x00
000032   8550     call    0x550            	CALL	_color_show
                                           ;	.line	1081; "MC32F7361.c"	cur_color_index = 0;
000033   764b     clrr    0x4b             	CLRR	_cur_color_index
                                           ;	.line	1082; "MC32F7361.c"	cur_mode_status = MODE_CLOSE;
000034   764f     clrr    0x4f             	CLRR	_cur_mode_status
                                           _00864_DS_
                                           ;	.line	1084; "MC32F7361.c"	while (RIGHT_KEY_UP == right_key_val) // 
000035   5847     movar   0x47             	MOVAR	_right_key_val
000036   3904     xorai   0x4              	XORAI	0x04
000037   e587     jbset   0x187, 0x2       	JBSET	PFLAG,2
000038   a03b     goto    0x3b             	GOTO	_00868_DS_
                                           ;	.line	1086; "MC32F7361.c"	key_scan(); // 
000039   85b3     call    0x5b3            	CALL	_key_scan
00003a   a035     goto    0x35             	GOTO	_00864_DS_
                                           _00868_DS_
                                           ;	.line	1091; "MC32F7361.c"	if (RIGHT_KEY_MID == right_key_val)
00003b   5847     movar   0x47             	MOVAR	_right_key_val
00003c   3905     xorai   0x5              	XORAI	0x05
00003d   e587     jbset   0x187, 0x2       	JBSET	PFLAG,2
00003e   a045     goto    0x45             	GOTO	_00875_DS_
                                           ;	.line	1094; "MC32F7361.c"	if (LIGHT_SENSOR_PIN)
00003f   e394     jbset   0x194, 0x1       	JBSET	_IOP1bits,1
000040   a043     goto    0x43             	GOTO	_00870_DS_
                                           ;	.line	1097; "MC32F7361.c"	RGB_ENABLE = 1; // 
000041   c650     bset    0x50, 0x3        	BSET	_flag1,3
000042   a04a     goto    0x4a             	GOTO	_00876_DS_
                                           _00870_DS_
                                           ;	.line	1102; "MC32F7361.c"	RGB_ENABLE = 0; // 
000043   d650     bclr    0x50, 0x3        	BCLR	_flag1,3
000044   a04a     goto    0x4a             	GOTO	_00876_DS_
                                           _00875_DS_
                                           ;	.line	1105; "MC32F7361.c"	else if (RIGHT_KEY_BOTTOM == right_key_val)
000045   5847     movar   0x47             	MOVAR	_right_key_val
000046   3906     xorai   0x6              	XORAI	0x06
000047   e587     jbset   0x187, 0x2       	JBSET	PFLAG,2
000048   a04a     goto    0x4a             	GOTO	_00876_DS_
                                           ;	.line	1108; "MC32F7361.c"	RGB_ENABLE = 1; // 
000049   c650     bset    0x50, 0x3        	BSET	_flag1,3
                                           _00876_DS_
                                           ;	.line	1112; "MC32F7361.c"	if (RGB_ENABLE)
00004a   e650     jbset   0x50, 0x3        	JBSET	_flag1,3
00004b   a0ce     goto    0xce             	GOTO	_00897_DS_
                                           ;	.line	1114; "MC32F7361.c"	if (LEFT_EY_UP == left_key_val)
00004c   5846     movar   0x46             	MOVAR	_left_key_val
00004d   3901     xorai   0x1              	XORAI	0x01
00004e   e587     jbset   0x187, 0x2       	JBSET	PFLAG,2
00004f   a052     goto    0x52             	GOTO	_00878_DS_
                                           ;	.line	1117; "MC32F7361.c"	LOCK_FLAG = 1;
000050   ca50     bset    0x50, 0x5        	BSET	_flag1,5
000051   a053     goto    0x53             	GOTO	_00879_DS_
                                           _00878_DS_
                                           ;	.line	1121; "MC32F7361.c"	LOCK_FLAG = 0;
000052   da50     bclr    0x50, 0x5        	BCLR	_flag1,5
                                           _00879_DS_
                                           ;	.line	1124; "MC32F7361.c"	if (LEFT_KEY_MID == left_key_val && 0 == LOCK_FLAG)
000053   5846     movar   0x46             	MOVAR	_left_key_val
000054   3902     xorai   0x2              	XORAI	0x02
000055   e587     jbset   0x187, 0x2       	JBSET	PFLAG,2
000056   a05d     goto    0x5d             	GOTO	_00893_DS_
000057   fa50     jbclr   0x50, 0x5        	JBCLR	_flag1,5
000058   a05d     goto    0x5d             	GOTO	_00893_DS_
                                           ;	.line	1136; "MC32F7361.c"	mode_gradient();
000059   837e     call    0x37e            	CALL	_mode_gradient
                                           ;	.line	1137; "MC32F7361.c"	cur_mode_status = MODE_GRADIENT;
00005a   3c02     movai   0x2              	MOVAI	0x02
00005b   564f     movra   0x4f             	MOVRA	_cur_mode_status
00005c   a020     goto    0x20             	GOTO	_00900_DS_
                                           _00893_DS_
                                           ;	.line	1139; "MC32F7361.c"	else if (LEFT_KEY_BOTTOM == left_key_val && 0 == LOCK_FLAG)
00005d   5846     movar   0x46             	MOVAR	_left_key_val
00005e   3903     xorai   0x3              	XORAI	0x03
00005f   e587     jbset   0x187, 0x2       	JBSET	PFLAG,2
000060   a067     goto    0x67             	GOTO	_00889_DS_
000061   fa50     jbclr   0x50, 0x5        	JBCLR	_flag1,5
000062   a067     goto    0x67             	GOTO	_00889_DS_
                                           ;	.line	1151; "MC32F7361.c"	mode_breathing();
000063   80e6     call    0xe6             	CALL	_mode_breathing
                                           ;	.line	1152; "MC32F7361.c"	cur_mode_status = MODE_BREATHING;
000064   3c01     movai   0x1              	MOVAI	0x01
000065   564f     movra   0x4f             	MOVRA	_cur_mode_status
000066   a020     goto    0x20             	GOTO	_00900_DS_
                                           _00889_DS_
                                           ;	.line	1154; "MC32F7361.c"	else if (1 == LOCK_FLAG)
000067   761b     clrr    0x1b             	CLRR	r0x1032
000068   fa50     jbclr   0x50, 0x5        	JBCLR	_flag1,5
000069   661b     incr    0x1b             	INCR	r0x1032
00006a   581b     movar   0x1b             	MOVAR	r0x1032
00006b   3901     xorai   0x1              	XORAI	0x01
00006c   e587     jbset   0x187, 0x2       	JBSET	PFLAG,2
00006d   a020     goto    0x20             	GOTO	_00900_DS_
                                           ;	.line	1157; "MC32F7361.c"	if (cur_color_index > 0)
00006e   3c00     movai   0                	MOVAI	0x00
00006f   5c4b     orar    0x4b             	ORAR	_cur_color_index
000070   f587     jbclr   0x187, 0x2       	JBCLR	PFLAG,2
000071   a073     goto    0x73             	GOTO	_00881_DS_
                                           ;	.line	1159; "MC32F7361.c"	cur_color_index--; // /
000072   6e4b     decr    0x4b             	DECR	_cur_color_index
                                           _00881_DS_
                                           ;	.line	1164; "MC32F7361.c"	color[0] = color_buf[cur_color_index][0];
000073   3c03     movai   0x3              	MOVAI	0x03
000074   5606     movra   0x6              	MOVRA	STK00
000075   584b     movar   0x4b             	MOVAR	_cur_color_index
000076   86f9     call    0x6f9            	CALL	__mulchar
000077   561b     movra   0x1b             	MOVRA	r0x1032
000078   581b     movar   0x1b             	MOVAR	r0x1032
000079   3fdb     addai   0xdb             	ADDAI	(_color_buf + 0)
00007a   561b     movra   0x1b             	MOVRA	r0x1032
00007b   3c06     movai   0x6              	MOVAI	high (_color_buf + 0)
00007c   f187     jbclr   0x187, 0         	JBCLR	PFLAG,0
00007d   3f01     addai   0x1              	ADDAI	0x01
00007e   561c     movra   0x1c             	MOVRA	r0x1031
00007f   581b     movar   0x1b             	MOVAR	r0x1032
000080   5605     movra   0x5              	MOVRA	STK01
000081   581c     movar   0x1c             	MOVAR	r0x1031
000082   5606     movra   0x6              	MOVRA	STK00
000083   3c80     movai   0x80             	MOVAI	0x80
000084   8710     call    0x710            	CALL	__gptrget1
000085   5633     movra   0x33             	MOVRA	(_color + 0)
000086   561d     movra   0x1d             	MOVRA	r0x1033
                                           ;;gen.c:6570: size=0, offset=0, AOP_TYPE(res)=8
                                           ;;126	MOVAR	r0x1033
                                           ;	.line	1165; "MC32F7361.c"	color[1] = color_buf[cur_color_index][1];
000087   3c03     movai   0x3              	MOVAI	0x03
000088   5606     movra   0x6              	MOVRA	STK00
000089   584b     movar   0x4b             	MOVAR	_cur_color_index
00008a   86f9     call    0x6f9            	CALL	__mulchar
00008b   561b     movra   0x1b             	MOVRA	r0x1032
00008c   581b     movar   0x1b             	MOVAR	r0x1032
00008d   3fdb     addai   0xdb             	ADDAI	(_color_buf + 0)
00008e   561b     movra   0x1b             	MOVRA	r0x1032
00008f   3c06     movai   0x6              	MOVAI	high (_color_buf + 0)
000090   f187     jbclr   0x187, 0         	JBCLR	PFLAG,0
000091   3f01     addai   0x1              	ADDAI	0x01
000092   561c     movra   0x1c             	MOVRA	r0x1031
000093   661b     incr    0x1b             	INCR	r0x1032
000094   f587     jbclr   0x187, 0x2       	JBCLR	PFLAG,2
000095   661c     incr    0x1c             	INCR	r0x1031
000096   581b     movar   0x1b             	MOVAR	r0x1032
000097   5605     movra   0x5              	MOVRA	STK01
000098   581c     movar   0x1c             	MOVAR	r0x1031
000099   5606     movra   0x6              	MOVRA	STK00
00009a   3c80     movai   0x80             	MOVAI	0x80
00009b   8710     call    0x710            	CALL	__gptrget1
00009c   5634     movra   0x34             	MOVRA	(_color + 1)
00009d   561d     movra   0x1d             	MOVRA	r0x1033
                                           ;;gen.c:6570: size=0, offset=0, AOP_TYPE(res)=8
                                           ;;123	MOVAR	r0x1033
                                           ;	.line	1166; "MC32F7361.c"	color[2] = color_buf[cur_color_index][2];
00009e   3c03     movai   0x3              	MOVAI	0x03
00009f   5606     movra   0x6              	MOVRA	STK00
0000a0   584b     movar   0x4b             	MOVAR	_cur_color_index
0000a1   86f9     call    0x6f9            	CALL	__mulchar
0000a2   561b     movra   0x1b             	MOVRA	r0x1032
0000a3   581b     movar   0x1b             	MOVAR	r0x1032
0000a4   3fdb     addai   0xdb             	ADDAI	(_color_buf + 0)
0000a5   561b     movra   0x1b             	MOVRA	r0x1032
0000a6   3c06     movai   0x6              	MOVAI	high (_color_buf + 0)
0000a7   f187     jbclr   0x187, 0         	JBCLR	PFLAG,0
0000a8   3f01     addai   0x1              	ADDAI	0x01
0000a9   561c     movra   0x1c             	MOVRA	r0x1031
0000aa   3c02     movai   0x2              	MOVAI	0x02
0000ab   7e1b     addra   0x1b             	ADDRA	r0x1032
0000ac   f187     jbclr   0x187, 0         	JBCLR	PFLAG,0
0000ad   661c     incr    0x1c             	INCR	r0x1031
0000ae   581b     movar   0x1b             	MOVAR	r0x1032
0000af   5605     movra   0x5              	MOVRA	STK01
0000b0   581c     movar   0x1c             	MOVAR	r0x1031
0000b1   5606     movra   0x6              	MOVRA	STK00
0000b2   3c80     movai   0x80             	MOVAI	0x80
0000b3   8710     call    0x710            	CALL	__gptrget1
0000b4   5635     movra   0x35             	MOVRA	(_color + 2)
0000b5   561d     movra   0x1d             	MOVRA	r0x1033
                                           ;;gen.c:6570: size=0, offset=0, AOP_TYPE(res)=8
                                           ;;120	MOVAR	r0x1033
                                           ;	.line	1167; "MC32F7361.c"	color_show(color); // 
0000b6   3c00     movai   0                	MOVAI	high (_color + 0)
0000b7   561c     movra   0x1c             	MOVRA	r0x1031
0000b8   3c33     movai   0x33             	MOVAI	(_color + 0)
0000b9   561b     movra   0x1b             	MOVRA	r0x1032
0000ba   761d     clrr    0x1d             	CLRR	r0x1033
0000bb   581b     movar   0x1b             	MOVAR	r0x1032
0000bc   5605     movra   0x5              	MOVRA	STK01
0000bd   581c     movar   0x1c             	MOVAR	r0x1031
0000be   5606     movra   0x6              	MOVRA	STK00
0000bf   3c00     movai   0                	MOVAI	0x00
0000c0   8550     call    0x550            	CALL	_color_show
                                           ;	.line	1168; "MC32F7361.c"	cur_mode_status = MODE_LOCK;
0000c1   3c03     movai   0x3              	MOVAI	0x03
0000c2   564f     movra   0x4f             	MOVRA	_cur_mode_status
                                           _00883_DS_
                                           ;	.line	1170; "MC32F7361.c"	while (LEFT_EY_UP == left_key_val && RIGHT_KEY_UP != right_key_val)
0000c3   5846     movar   0x46             	MOVAR	_left_key_val
0000c4   3901     xorai   0x1              	XORAI	0x01
0000c5   e587     jbset   0x187, 0x2       	JBSET	PFLAG,2
0000c6   a020     goto    0x20             	GOTO	_00900_DS_
0000c7   5847     movar   0x47             	MOVAR	_right_key_val
0000c8   3904     xorai   0x4              	XORAI	0x04
0000c9   e587     jbset   0x187, 0x2       	JBSET	PFLAG,2
0000ca   a0cc     goto    0xcc             	GOTO	_00976_DS_
0000cb   a020     goto    0x20             	GOTO	_00900_DS_
                                           _00976_DS_
                                           ;	.line	1172; "MC32F7361.c"	key_scan();
0000cc   85b3     call    0x5b3            	CALL	_key_scan
0000cd   a0c3     goto    0xc3             	GOTO	_00883_DS_
                                           ;;gen.c:6570: size=0, offset=0, AOP_TYPE(res)=8
                                           _00897_DS_
                                           ;	.line	1179; "MC32F7361.c"	color[0] = 0x00;
0000ce   7633     clrr    0x33             	CLRR	(_color + 0)
                                           ;;gen.c:6570: size=0, offset=0, AOP_TYPE(res)=8
                                           ;	.line	1180; "MC32F7361.c"	color[1] = 0x00;
0000cf   7634     clrr    0x34             	CLRR	(_color + 1)
                                           ;;gen.c:6570: size=0, offset=0, AOP_TYPE(res)=8
                                           ;	.line	1181; "MC32F7361.c"	color[2] = 0x00;
0000d0   7635     clrr    0x35             	CLRR	(_color + 2)
                                           ;	.line	1182; "MC32F7361.c"	color_show(color); // 
0000d1   3c00     movai   0                	MOVAI	high (_color + 0)
0000d2   561c     movra   0x1c             	MOVRA	r0x1031
0000d3   3c33     movai   0x33             	MOVAI	(_color + 0)
0000d4   561b     movra   0x1b             	MOVRA	r0x1032
0000d5   761d     clrr    0x1d             	CLRR	r0x1033
0000d6   581b     movar   0x1b             	MOVAR	r0x1032
0000d7   5605     movra   0x5              	MOVRA	STK01
0000d8   581c     movar   0x1c             	MOVAR	r0x1031
0000d9   5606     movra   0x6              	MOVRA	STK00
0000da   3c00     movai   0                	MOVAI	0x00
0000db   8550     call    0x550            	CALL	_color_show
0000dc   a020     goto    0x20             	GOTO	_00900_DS_
                                           ;	.line	1256; "MC32F7361.c"	}
0000dd   000c     return                   	RETURN	
                                           ; exit point of _main
                                           
                                           ;***
                                           ;  pBlock Stats: dbName = C
                                           ;***
                                           ;entry:  _Sys_Init	;Function start
                                           ; 2 exit points
                                           ;has an exit
                                           ;functions called:
                                           ;   _CLR_RAM
                                           ;   _IO_Init
                                           ;   _timer0_pwm_config
                                           ;   _timer1_pwm_config
                                           ;   _timer2_pwm_config
                                           ;   _CLR_RAM
                                           ;   _IO_Init
                                           ;   _timer0_pwm_config
                                           ;   _timer1_pwm_config
                                           ;   _timer2_pwm_config
                                           ;; Starting pCode block
                                           _Sys_Init	;Function start
                                           ; 2 exit points
                                           ;	.line	1008; "MC32F7361.c"	GIE = 0;
0000de   df88     bclr    0x188, 0x7       	BCLR	_MCRbits,7
                                           ;	.line	1014; "MC32F7361.c"	CLR_RAM();
0000df   862b     call    0x62b            	CALL	_CLR_RAM
                                           ;	.line	1015; "MC32F7361.c"	IO_Init(); // 
0000e0   860c     call    0x60c            	CALL	_IO_Init
                                           ;	.line	1017; "MC32F7361.c"	timer0_pwm_config(); // PWM
0000e1   85a8     call    0x5a8            	CALL	_timer0_pwm_config
                                           ;	.line	1018; "MC32F7361.c"	timer1_pwm_config(); // PWM
0000e2   859f     call    0x59f            	CALL	_timer1_pwm_config
                                           ;	.line	1019; "MC32F7361.c"	timer2_pwm_config(); // PWM
0000e3   8597     call    0x597            	CALL	_timer2_pwm_config
                                           ;	.line	1021; "MC32F7361.c"	GIE = 1;
0000e4   cf88     bset    0x188, 0x7       	BSET	_MCRbits,7
                                           ;	.line	1022; "MC32F7361.c"	}
0000e5   000c     return                   	RETURN	
                                           ; exit point of _Sys_Init
                                           
                                           ;***
                                           ;  pBlock Stats: dbName = C
                                           ;***
                                           ;entry:  _mode_breathing	;Function start
                                           ; 2 exit points
                                           ;has an exit
                                           ;functions called:
                                           ;   __mulchar
                                           ;   ___color_breathing
                                           ;   __mulchar
                                           ;   ___color_breathing
                                           ;7 compiler assigned registers:
                                           ;   STK00
                                           ;   r0x102C
                                           ;   r0x102D
                                           ;   r0x102E
                                           ;   r0x102F
                                           ;   r0x1030
                                           ;   STK01
                                           ;; Starting pCode block
                                           _mode_breathing	;Function start
                                           ; 2 exit points
                                           ;	.line	989; "MC32F7361.c"	__color_breathing(color_buf[cur_color_index]);
0000e6   3c03     movai   0x3              	MOVAI	0x03
0000e7   5606     movra   0x6              	MOVRA	STK00
0000e8   584b     movar   0x4b             	MOVAR	_cur_color_index
0000e9   86f9     call    0x6f9            	CALL	__mulchar
0000ea   5618     movra   0x18             	MOVRA	r0x102C
0000eb   5818     movar   0x18             	MOVAR	r0x102C
0000ec   3fdb     addai   0xdb             	ADDAI	(_color_buf + 0)
0000ed   5618     movra   0x18             	MOVRA	r0x102C
0000ee   3c06     movai   0x6              	MOVAI	high (_color_buf + 0)
0000ef   f187     jbclr   0x187, 0         	JBCLR	PFLAG,0
0000f0   3f01     addai   0x1              	ADDAI	0x01
0000f1   5619     movra   0x19             	MOVRA	r0x102E
                                           ;;1	MOVRA	r0x102D
                                           ;;109	MOVAR	r0x102D
                                           ;;112	MOVAR	r0x102C
                                           ;;110	MOVRA	r0x102F
0000f2   3c80     movai   0x80             	MOVAI	0x80
0000f3   561a     movra   0x1a             	MOVRA	r0x1030
                                           ;;111	MOVAR	r0x102F
0000f4   5818     movar   0x18             	MOVAR	r0x102C
0000f5   5605     movra   0x5              	MOVRA	STK01
0000f6   5819     movar   0x19             	MOVAR	r0x102E
0000f7   5606     movra   0x6              	MOVRA	STK00
0000f8   581a     movar   0x1a             	MOVAR	r0x1030
0000f9   8105     call    0x105            	CALL	___color_breathing
                                           ;	.line	991; "MC32F7361.c"	if (0 == SWITCH_CHANGE_FLAG)
0000fa   fc50     jbclr   0x50, 0x6        	JBCLR	_flag1,6
0000fb   a103     goto    0x103            	GOTO	_00853_DS_
                                           ;	.line	993; "MC32F7361.c"	cur_color_index++;
0000fc   664b     incr    0x4b             	INCR	_cur_color_index
                                           ;	.line	994; "MC32F7361.c"	if (COLOR_NUMS == cur_color_index) // 
0000fd   584b     movar   0x4b             	MOVAR	_cur_color_index
0000fe   390a     xorai   0xa              	XORAI	0x0a
0000ff   e587     jbset   0x187, 0x2       	JBSET	PFLAG,2
000100   a104     goto    0x104            	GOTO	_00855_DS_
                                           ;	.line	996; "MC32F7361.c"	cur_color_index = 0;
000101   764b     clrr    0x4b             	CLRR	_cur_color_index
000102   a104     goto    0x104            	GOTO	_00855_DS_
                                           _00853_DS_
                                           ;	.line	1002; "MC32F7361.c"	SWITCH_CHANGE_FLAG = 0;
000103   dc50     bclr    0x50, 0x6        	BCLR	_flag1,6
                                           _00855_DS_
                                           ;	.line	1004; "MC32F7361.c"	}
000104   000c     return                   	RETURN	
                                           ; exit point of _mode_breathing
                                           
                                           ;***
                                           ;  pBlock Stats: dbName = C
                                           ;***
                                           ;entry:  ___color_breathing	;Function start
                                           ; 2 exit points
                                           ;has an exit
                                           ;functions called:
                                           ;   __gptrget1
                                           ;   __gptrget1
                                           ;   __gptrget1
                                           ;   ___get_time_interval
                                           ;   ___get_time_interval
                                           ;   ___get_time_interval
                                           ;   _delay_ms
                                           ;   _delay_ms
                                           ;   _delay_ms
                                           ;   _color_set_component_r
                                           ;   _color_set_component_g
                                           ;   _color_set_component_b
                                           ;   _delay_ms
                                           ;   _delay_ms
                                           ;   _delay_ms
                                           ;   _delay_ms
                                           ;   ___get_time_interval
                                           ;   ___get_time_interval
                                           ;   ___get_time_interval
                                           ;   _delay_ms
                                           ;   _delay_ms
                                           ;   _delay_ms
                                           ;   _color_set_component_r
                                           ;   _color_set_component_g
                                           ;   _color_set_component_b
                                           ;   _delay_ms
                                           ;   _color_show
                                           ;   _delay_ms
                                           ;   _delay_ms
                                           ;   _delay_ms
                                           ;   _delay_ms
                                           ;   __gptrget1
                                           ;   __gptrget1
                                           ;   __gptrget1
                                           ;   ___get_time_interval
                                           ;   ___get_time_interval
                                           ;   ___get_time_interval
                                           ;   _delay_ms
                                           ;   _delay_ms
                                           ;   _delay_ms
                                           ;   _color_set_component_r
                                           ;   _color_set_component_g
                                           ;   _color_set_component_b
                                           ;   _delay_ms
                                           ;   _delay_ms
                                           ;   _delay_ms
                                           ;   _delay_ms
                                           ;   ___get_time_interval
                                           ;   ___get_time_interval
                                           ;   ___get_time_interval
                                           ;   _delay_ms
                                           ;   _delay_ms
                                           ;   _delay_ms
                                           ;   _color_set_component_r
                                           ;   _color_set_component_g
                                           ;   _color_set_component_b
                                           ;   _delay_ms
                                           ;   _color_show
                                           ;   _delay_ms
                                           ;   _delay_ms
                                           ;   _delay_ms
                                           ;   _delay_ms
                                           ;9 compiler assigned registers:
                                           ;   r0x1026
                                           ;   STK00
                                           ;   r0x1027
                                           ;   STK01
                                           ;   r0x1028
                                           ;   r0x1029
                                           ;   r0x102A
                                           ;   r0x102B
                                           ;   STK02
                                           ;; Starting pCode block
                                           ___color_breathing	;Function start
                                           ; 2 exit points
                                           ;	.line	687; "MC32F7361.c"	void __color_breathing(u8 *next_color)
000105   5611     movra   0x11             	MOVRA	r0x1026
000106   5806     movar   0x6              	MOVAR	STK00
000107   5610     movra   0x10             	MOVRA	r0x1027
000108   5805     movar   0x5              	MOVAR	STK01
000109   5612     movra   0x12             	MOVRA	r0x1028
                                           ;	.line	689; "MC32F7361.c"	next_r = next_color[0]; // 
00010a   5812     movar   0x12             	MOVAR	r0x1028
00010b   5605     movra   0x5              	MOVRA	STK01
00010c   5810     movar   0x10             	MOVAR	r0x1027
00010d   5606     movra   0x6              	MOVRA	STK00
00010e   5811     movar   0x11             	MOVAR	r0x1026
00010f   8710     call    0x710            	CALL	__gptrget1
000110   564c     movra   0x4c             	MOVRA	_next_r
                                           ;	.line	690; "MC32F7361.c"	next_g = next_color[1];
000111   3c01     movai   0x1              	MOVAI	0x01
000112   7c12     addar   0x12             	ADDAR	r0x1028
000113   5613     movra   0x13             	MOVRA	r0x1029
000114   7614     clrr    0x14             	CLRR	r0x102A
000115   5214     rlr     0x14             	RLR	r0x102A
000116   5810     movar   0x10             	MOVAR	r0x1027
000117   7e14     addra   0x14             	ADDRA	r0x102A
000118   7615     clrr    0x15             	CLRR	r0x102B
000119   5215     rlr     0x15             	RLR	r0x102B
00011a   5811     movar   0x11             	MOVAR	r0x1026
00011b   7e15     addra   0x15             	ADDRA	r0x102B
00011c   5813     movar   0x13             	MOVAR	r0x1029
00011d   5605     movra   0x5              	MOVRA	STK01
00011e   5814     movar   0x14             	MOVAR	r0x102A
00011f   5606     movra   0x6              	MOVRA	STK00
000120   5815     movar   0x15             	MOVAR	r0x102B
000121   8710     call    0x710            	CALL	__gptrget1
000122   564d     movra   0x4d             	MOVRA	_next_g
                                           ;	.line	691; "MC32F7361.c"	next_b = next_color[2];
000123   3c02     movai   0x2              	MOVAI	0x02
000124   7e12     addra   0x12             	ADDRA	r0x1028
000125   f187     jbclr   0x187, 0         	JBCLR	PFLAG,0
000126   6610     incr    0x10             	INCR	r0x1027
000127   f587     jbclr   0x187, 0x2       	JBCLR	PFLAG,2
000128   6611     incr    0x11             	INCR	r0x1026
000129   5812     movar   0x12             	MOVAR	r0x1028
00012a   5605     movra   0x5              	MOVRA	STK01
00012b   5810     movar   0x10             	MOVAR	r0x1027
00012c   5606     movra   0x6              	MOVRA	STK00
00012d   5811     movar   0x11             	MOVAR	r0x1026
00012e   8710     call    0x710            	CALL	__gptrget1
00012f   564e     movra   0x4e             	MOVRA	_next_b
                                           ;	.line	693; "MC32F7361.c"	tmp_r = 0; // RGB
000130   7638     clrr    0x38             	CLRR	_tmp_r
000131   7639     clrr    0x39             	CLRR	(_tmp_r + 1)
                                           ;	.line	694; "MC32F7361.c"	tmp_g = 0;
000132   763a     clrr    0x3a             	CLRR	_tmp_g
000133   763b     clrr    0x3b             	CLRR	(_tmp_g + 1)
                                           ;	.line	695; "MC32F7361.c"	tmp_b = 0;
000134   763c     clrr    0x3c             	CLRR	_tmp_b
000135   763d     clrr    0x3d             	CLRR	(_tmp_b + 1)
                                           ;	.line	697; "MC32F7361.c"	cur_r = 0; // 0
000136   7648     clrr    0x48             	CLRR	_cur_r
                                           ;	.line	698; "MC32F7361.c"	cur_g = 0;
000137   7649     clrr    0x49             	CLRR	_cur_g
                                           ;	.line	699; "MC32F7361.c"	cur_b = 0;
000138   764a     clrr    0x4a             	CLRR	_cur_b
                                           ;	.line	701; "MC32F7361.c"	time_interval_r = __get_time_interval(1, next_r); // PWM
000139   584c     movar   0x4c             	MOVAR	_next_r
00013a   5606     movra   0x6              	MOVRA	STK00
00013b   3c01     movai   0x1              	MOVAI	0x01
00013c   832e     call    0x32e            	CALL	___get_time_interval
00013d   563f     movra   0x3f             	MOVRA	(_time_interval_r + 1)
00013e   5806     movar   0x6              	MOVAR	STK00
00013f   563e     movra   0x3e             	MOVRA	_time_interval_r
                                           ;	.line	702; "MC32F7361.c"	time_interval_g = __get_time_interval(1, next_g);
000140   584d     movar   0x4d             	MOVAR	_next_g
000141   5606     movra   0x6              	MOVRA	STK00
000142   3c01     movai   0x1              	MOVAI	0x01
000143   832e     call    0x32e            	CALL	___get_time_interval
000144   5641     movra   0x41             	MOVRA	(_time_interval_g + 1)
000145   5806     movar   0x6              	MOVAR	STK00
000146   5640     movra   0x40             	MOVRA	_time_interval_g
                                           ;	.line	703; "MC32F7361.c"	time_interval_b = __get_time_interval(1, next_b);
000147   584e     movar   0x4e             	MOVAR	_next_b
000148   5606     movra   0x6              	MOVRA	STK00
000149   3c01     movai   0x1              	MOVAI	0x01
00014a   832e     call    0x32e            	CALL	___get_time_interval
00014b   5643     movra   0x43             	MOVRA	(_time_interval_b + 1)
00014c   5806     movar   0x6              	MOVAR	STK00
00014d   5642     movra   0x42             	MOVRA	_time_interval_b
                                           ;	.line	706; "MC32F7361.c"	for (i = 0; i < BREATHING_LIGHT_ON_TIME; i++)
00014e   7636     clrr    0x36             	CLRR	_i
00014f   7637     clrr    0x37             	CLRR	(_i + 1)
                                           _00591_DS_
                                           ;	.line	712; "MC32F7361.c"	tmp_r += 100;
000150   3c64     movai   0x64             	MOVAI	0x64
000151   7e38     addra   0x38             	ADDRA	_tmp_r
000152   f187     jbclr   0x187, 0         	JBCLR	PFLAG,0
000153   6639     incr    0x39             	INCR	(_tmp_r + 1)
                                           ;	.line	713; "MC32F7361.c"	tmp_g += 100;
000154   3c64     movai   0x64             	MOVAI	0x64
000155   7e3a     addra   0x3a             	ADDRA	_tmp_g
000156   f187     jbclr   0x187, 0         	JBCLR	PFLAG,0
000157   663b     incr    0x3b             	INCR	(_tmp_g + 1)
                                           ;	.line	714; "MC32F7361.c"	tmp_b += 100;
000158   3c64     movai   0x64             	MOVAI	0x64
000159   7e3c     addra   0x3c             	ADDRA	_tmp_b
00015a   f187     jbclr   0x187, 0         	JBCLR	PFLAG,0
00015b   663d     incr    0x3d             	INCR	(_tmp_b + 1)
                                           ;	.line	716; "MC32F7361.c"	if (KEY_2_3_PIN == 0)
00015c   f594     jbclr   0x194, 0x2       	JBCLR	_IOP1bits,2
00015d   a16b     goto    0x16b            	GOTO	_00505_DS_
                                           ;	.line	719; "MC32F7361.c"	delay_ms(10);
00015e   3c0a     movai   0xa              	MOVAI	0x0a
00015f   5604     movra   0x4              	MOVRA	STK02
000160   3c00     movai   0                	MOVAI	0x00
000161   5605     movra   0x5              	MOVRA	STK01
000162   3c00     movai   0                	MOVAI	0x00
000163   5606     movra   0x6              	MOVRA	STK00
000164   3c00     movai   0                	MOVAI	0x00
000165   8637     call    0x637            	CALL	_delay_ms
                                           ;	.line	720; "MC32F7361.c"	if (KEY_2_3_PIN == 0)
000166   f594     jbclr   0x194, 0x2       	JBCLR	_IOP1bits,2
000167   a18f     goto    0x18f            	GOTO	_00506_DS_
                                           ;	.line	722; "MC32F7361.c"	right_key_val = RIGHT_KEY_UP;
000168   3c04     movai   0x4              	MOVAI	0x04
000169   5647     movra   0x47             	MOVRA	_right_key_val
                                           ;	.line	723; "MC32F7361.c"	return;
00016a   a32d     goto    0x32d            	GOTO	_00599_DS_
                                           _00505_DS_
                                           ;	.line	726; "MC32F7361.c"	else if (0 == KEY_1_1_PIN)
00016b   f390     jbclr   0x190, 0x1       	JBCLR	_IOP0bits,1
00016c   a17a     goto    0x17a            	GOTO	_00502_DS_
                                           ;	.line	728; "MC32F7361.c"	delay_ms(10);
00016d   3c0a     movai   0xa              	MOVAI	0x0a
00016e   5604     movra   0x4              	MOVRA	STK02
00016f   3c00     movai   0                	MOVAI	0x00
000170   5605     movra   0x5              	MOVRA	STK01
000171   3c00     movai   0                	MOVAI	0x00
000172   5606     movra   0x6              	MOVRA	STK00
000173   3c00     movai   0                	MOVAI	0x00
000174   8637     call    0x637            	CALL	_delay_ms
                                           ;	.line	729; "MC32F7361.c"	if (0 == KEY_1_1_PIN)
000175   f390     jbclr   0x190, 0x1       	JBCLR	_IOP0bits,1
000176   a18f     goto    0x18f            	GOTO	_00506_DS_
                                           ;	.line	731; "MC32F7361.c"	left_key_val = LEFT_EY_UP;
000177   3c01     movai   0x1              	MOVAI	0x01
000178   5646     movra   0x46             	MOVRA	_left_key_val
                                           ;	.line	733; "MC32F7361.c"	return;
000179   a32d     goto    0x32d            	GOTO	_00599_DS_
                                           _00502_DS_
                                           ;	.line	736; "MC32F7361.c"	else if ((0 == KEY_2_2_PIN) && (0 == LIGHT_SENSOR_PIN) &&
00017a   f794     jbclr   0x194, 0x3       	JBCLR	_IOP1bits,3
00017b   a18f     goto    0x18f            	GOTO	_00506_DS_
00017c   f394     jbclr   0x194, 0x1       	JBCLR	_IOP1bits,1
00017d   a18f     goto    0x18f            	GOTO	_00506_DS_
                                           ;	.line	737; "MC32F7361.c"	(0 == SWITCH_CHANGE_FLAG))
00017e   fc50     jbclr   0x50, 0x6        	JBCLR	_flag1,6
00017f   a18f     goto    0x18f            	GOTO	_00506_DS_
                                           ;	.line	740; "MC32F7361.c"	delay_ms(10);
000180   3c0a     movai   0xa              	MOVAI	0x0a
000181   5604     movra   0x4              	MOVRA	STK02
000182   3c00     movai   0                	MOVAI	0x00
000183   5605     movra   0x5              	MOVRA	STK01
000184   3c00     movai   0                	MOVAI	0x00
000185   5606     movra   0x6              	MOVRA	STK00
000186   3c00     movai   0                	MOVAI	0x00
000187   8637     call    0x637            	CALL	_delay_ms
                                           ;	.line	741; "MC32F7361.c"	if (0 == KEY_2_2_PIN && 0 == LIGHT_SENSOR_PIN)
000188   f794     jbclr   0x194, 0x3       	JBCLR	_IOP1bits,3
000189   a18f     goto    0x18f            	GOTO	_00506_DS_
00018a   f394     jbclr   0x194, 0x1       	JBCLR	_IOP1bits,1
00018b   a18f     goto    0x18f            	GOTO	_00506_DS_
                                           ;	.line	744; "MC32F7361.c"	RGB_ENABLE = 0; // 
00018c   d650     bclr    0x50, 0x3        	BCLR	_flag1,3
                                           ;	.line	745; "MC32F7361.c"	SWITCH_CHANGE_FLAG = 1;
00018d   cc50     bset    0x50, 0x6        	BSET	_flag1,6
                                           ;	.line	746; "MC32F7361.c"	return;
00018e   a32d     goto    0x32d            	GOTO	_00599_DS_
                                           _00506_DS_
                                           ;	.line	751; "MC32F7361.c"	if (cur_r < next_r && tmp_r >= time_interval_r)
00018f   584c     movar   0x4c             	MOVAR	_next_r
000190   4848     rsubar  0x48             	RSUBAR	_cur_r
000191   f187     jbclr   0x187, 0         	JBCLR	PFLAG,0
000192   a1a0     goto    0x1a0            	GOTO	_00508_DS_
                                           ;;genSkipc:3291: created from rifx:013B5EFC
000193   583f     movar   0x3f             	MOVAR	(_time_interval_r + 1)
000194   4839     rsubar  0x39             	RSUBAR	(_tmp_r + 1)
000195   e587     jbset   0x187, 0x2       	JBSET	PFLAG,2
000196   a199     goto    0x199            	GOTO	_00834_DS_
000197   583e     movar   0x3e             	MOVAR	_time_interval_r
000198   4838     rsubar  0x38             	RSUBAR	_tmp_r
                                           _00834_DS_
000199   e187     jbset   0x187, 0         	JBSET	PFLAG,0
00019a   a1a0     goto    0x1a0            	GOTO	_00508_DS_
                                           ;;genSkipc:3291: created from rifx:013B5EFC
                                           ;	.line	754; "MC32F7361.c"	tmp_r = 0;
00019b   7638     clrr    0x38             	CLRR	_tmp_r
00019c   7639     clrr    0x39             	CLRR	(_tmp_r + 1)
                                           ;	.line	755; "MC32F7361.c"	cur_r++;
00019d   6648     incr    0x48             	INCR	_cur_r
                                           ;	.line	756; "MC32F7361.c"	color_set_component_r(cur_r);
00019e   5848     movar   0x48             	MOVAR	_cur_r
00019f   854a     call    0x54a            	CALL	_color_set_component_r
                                           _00508_DS_
                                           ;	.line	760; "MC32F7361.c"	if (cur_g < next_g && tmp_g >= time_interval_g)
0001a0   584d     movar   0x4d             	MOVAR	_next_g
0001a1   4849     rsubar  0x49             	RSUBAR	_cur_g
0001a2   f187     jbclr   0x187, 0         	JBCLR	PFLAG,0
0001a3   a1b1     goto    0x1b1            	GOTO	_00511_DS_
                                           ;;genSkipc:3291: created from rifx:013B5EFC
0001a4   5841     movar   0x41             	MOVAR	(_time_interval_g + 1)
0001a5   483b     rsubar  0x3b             	RSUBAR	(_tmp_g + 1)
0001a6   e587     jbset   0x187, 0x2       	JBSET	PFLAG,2
0001a7   a1aa     goto    0x1aa            	GOTO	_00836_DS_
0001a8   5840     movar   0x40             	MOVAR	_time_interval_g
0001a9   483a     rsubar  0x3a             	RSUBAR	_tmp_g
                                           _00836_DS_
0001aa   e187     jbset   0x187, 0         	JBSET	PFLAG,0
0001ab   a1b1     goto    0x1b1            	GOTO	_00511_DS_
                                           ;;genSkipc:3291: created from rifx:013B5EFC
                                           ;	.line	763; "MC32F7361.c"	tmp_g = 0;
0001ac   763a     clrr    0x3a             	CLRR	_tmp_g
0001ad   763b     clrr    0x3b             	CLRR	(_tmp_g + 1)
                                           ;	.line	764; "MC32F7361.c"	cur_g++;
0001ae   6649     incr    0x49             	INCR	_cur_g
                                           ;	.line	765; "MC32F7361.c"	color_set_component_g(cur_g);
0001af   5849     movar   0x49             	MOVAR	_cur_g
0001b0   8544     call    0x544            	CALL	_color_set_component_g
                                           _00511_DS_
                                           ;	.line	769; "MC32F7361.c"	if (cur_b < next_b && tmp_b >= time_interval_b)
0001b1   584e     movar   0x4e             	MOVAR	_next_b
0001b2   484a     rsubar  0x4a             	RSUBAR	_cur_b
0001b3   f187     jbclr   0x187, 0         	JBCLR	PFLAG,0
0001b4   a1c2     goto    0x1c2            	GOTO	_00514_DS_
                                           ;;genSkipc:3291: created from rifx:013B5EFC
0001b5   5843     movar   0x43             	MOVAR	(_time_interval_b + 1)
0001b6   483d     rsubar  0x3d             	RSUBAR	(_tmp_b + 1)
0001b7   e587     jbset   0x187, 0x2       	JBSET	PFLAG,2
0001b8   a1bb     goto    0x1bb            	GOTO	_00838_DS_
0001b9   5842     movar   0x42             	MOVAR	_time_interval_b
0001ba   483c     rsubar  0x3c             	RSUBAR	_tmp_b
                                           _00838_DS_
0001bb   e187     jbset   0x187, 0         	JBSET	PFLAG,0
0001bc   a1c2     goto    0x1c2            	GOTO	_00514_DS_
                                           ;;genSkipc:3291: created from rifx:013B5EFC
                                           ;	.line	772; "MC32F7361.c"	tmp_b = 0;
0001bd   763c     clrr    0x3c             	CLRR	_tmp_b
0001be   763d     clrr    0x3d             	CLRR	(_tmp_b + 1)
                                           ;	.line	773; "MC32F7361.c"	cur_b++;
0001bf   664a     incr    0x4a             	INCR	_cur_b
                                           ;	.line	774; "MC32F7361.c"	color_set_component_b(cur_b);
0001c0   584a     movar   0x4a             	MOVAR	_cur_b
0001c1   853e     call    0x53e            	CALL	_color_set_component_b
                                           _00514_DS_
                                           ;	.line	780; "MC32F7361.c"	delay_ms(1);
0001c2   3c01     movai   0x1              	MOVAI	0x01
0001c3   5604     movra   0x4              	MOVRA	STK02
0001c4   3c00     movai   0                	MOVAI	0x00
0001c5   5605     movra   0x5              	MOVRA	STK01
0001c6   3c00     movai   0                	MOVAI	0x00
0001c7   5606     movra   0x6              	MOVRA	STK00
0001c8   3c00     movai   0                	MOVAI	0x00
0001c9   8637     call    0x637            	CALL	_delay_ms
                                           ;	.line	706; "MC32F7361.c"	for (i = 0; i < BREATHING_LIGHT_ON_TIME; i++)
0001ca   6636     incr    0x36             	INCR	_i
0001cb   f587     jbclr   0x187, 0x2       	JBCLR	PFLAG,2
0001cc   6637     incr    0x37             	INCR	(_i + 1)
                                           ;;unsigned compare: left < lit(0x352=850), size=2
0001cd   3c03     movai   0x3              	MOVAI	0x03
0001ce   4837     rsubar  0x37             	RSUBAR	(_i + 1)
0001cf   e587     jbset   0x187, 0x2       	JBSET	PFLAG,2
0001d0   a1d3     goto    0x1d3            	GOTO	_00839_DS_
0001d1   3c52     movai   0x52             	MOVAI	0x52
0001d2   4836     rsubar  0x36             	RSUBAR	_i
                                           _00839_DS_
0001d3   e187     jbset   0x187, 0         	JBSET	PFLAG,0
0001d4   a150     goto    0x150            	GOTO	_00591_DS_
                                           ;;genSkipc:3291: created from rifx:013B5EFC
                                           ;	.line	788; "MC32F7361.c"	for (i = 0; i < 500; i++) // 500ms
0001d5   7636     clrr    0x36             	CLRR	_i
0001d6   7637     clrr    0x37             	CLRR	(_i + 1)
                                           _00593_DS_
                                           ;	.line	790; "MC32F7361.c"	if (KEY_2_3_PIN == 0)
0001d7   f594     jbclr   0x194, 0x2       	JBCLR	_IOP1bits,2
0001d8   a1fb     goto    0x1fb            	GOTO	_00528_DS_
                                           ;	.line	792; "MC32F7361.c"	delay_ms(10);
0001d9   3c0a     movai   0xa              	MOVAI	0x0a
0001da   5604     movra   0x4              	MOVRA	STK02
0001db   3c00     movai   0                	MOVAI	0x00
0001dc   5605     movra   0x5              	MOVRA	STK01
0001dd   3c00     movai   0                	MOVAI	0x00
0001de   5606     movra   0x6              	MOVRA	STK00
0001df   3c00     movai   0                	MOVAI	0x00
0001e0   8637     call    0x637            	CALL	_delay_ms
                                           ;	.line	796; "MC32F7361.c"	if (KEY_2_3_PIN == 0)
0001e1   f594     jbclr   0x194, 0x2       	JBCLR	_IOP1bits,2
0001e2   a1e6     goto    0x1e6            	GOTO	_00525_DS_
                                           ;	.line	798; "MC32F7361.c"	right_key_val = RIGHT_KEY_UP;
0001e3   3c04     movai   0x4              	MOVAI	0x04
0001e4   5647     movra   0x47             	MOVRA	_right_key_val
                                           ;	.line	800; "MC32F7361.c"	return;
0001e5   a32d     goto    0x32d            	GOTO	_00599_DS_
                                           _00525_DS_
                                           ;	.line	802; "MC32F7361.c"	else if ((0 == KEY_2_2_PIN) && (0 == LIGHT_SENSOR_PIN) &&
0001e6   f794     jbclr   0x194, 0x3       	JBCLR	_IOP1bits,3
0001e7   a1fb     goto    0x1fb            	GOTO	_00528_DS_
0001e8   f394     jbclr   0x194, 0x1       	JBCLR	_IOP1bits,1
0001e9   a1fb     goto    0x1fb            	GOTO	_00528_DS_
                                           ;	.line	803; "MC32F7361.c"	(0 == SWITCH_CHANGE_FLAG))
0001ea   fc50     jbclr   0x50, 0x6        	JBCLR	_flag1,6
0001eb   a1fb     goto    0x1fb            	GOTO	_00528_DS_
                                           ;	.line	806; "MC32F7361.c"	delay_ms(10);
0001ec   3c0a     movai   0xa              	MOVAI	0x0a
0001ed   5604     movra   0x4              	MOVRA	STK02
0001ee   3c00     movai   0                	MOVAI	0x00
0001ef   5605     movra   0x5              	MOVRA	STK01
0001f0   3c00     movai   0                	MOVAI	0x00
0001f1   5606     movra   0x6              	MOVRA	STK00
0001f2   3c00     movai   0                	MOVAI	0x00
0001f3   8637     call    0x637            	CALL	_delay_ms
                                           ;	.line	807; "MC32F7361.c"	if ((0 == KEY_2_2_PIN) && (0 == LIGHT_SENSOR_PIN))
0001f4   f794     jbclr   0x194, 0x3       	JBCLR	_IOP1bits,3
0001f5   a1fb     goto    0x1fb            	GOTO	_00528_DS_
0001f6   f394     jbclr   0x194, 0x1       	JBCLR	_IOP1bits,1
0001f7   a1fb     goto    0x1fb            	GOTO	_00528_DS_
                                           ;	.line	810; "MC32F7361.c"	RGB_ENABLE = 0; // 
0001f8   d650     bclr    0x50, 0x3        	BCLR	_flag1,3
                                           ;	.line	811; "MC32F7361.c"	SWITCH_CHANGE_FLAG = 1;
0001f9   cc50     bset    0x50, 0x6        	BSET	_flag1,6
                                           ;	.line	812; "MC32F7361.c"	return;
0001fa   a32d     goto    0x32d            	GOTO	_00599_DS_
                                           _00528_DS_
                                           ;	.line	817; "MC32F7361.c"	delay_ms(1);
0001fb   3c01     movai   0x1              	MOVAI	0x01
0001fc   5604     movra   0x4              	MOVRA	STK02
0001fd   3c00     movai   0                	MOVAI	0x00
0001fe   5605     movra   0x5              	MOVRA	STK01
0001ff   3c00     movai   0                	MOVAI	0x00
000200   5606     movra   0x6              	MOVRA	STK00
000201   3c00     movai   0                	MOVAI	0x00
000202   8637     call    0x637            	CALL	_delay_ms
                                           ;	.line	788; "MC32F7361.c"	for (i = 0; i < 500; i++) // 500ms
000203   6636     incr    0x36             	INCR	_i
000204   f587     jbclr   0x187, 0x2       	JBCLR	PFLAG,2
000205   6637     incr    0x37             	INCR	(_i + 1)
                                           ;;unsigned compare: left < lit(0x1F4=500), size=2
000206   3c01     movai   0x1              	MOVAI	0x01
000207   4837     rsubar  0x37             	RSUBAR	(_i + 1)
000208   e587     jbset   0x187, 0x2       	JBSET	PFLAG,2
000209   a20c     goto    0x20c            	GOTO	_00840_DS_
00020a   3cf4     movai   0xf4             	MOVAI	0xf4
00020b   4836     rsubar  0x36             	RSUBAR	_i
                                           _00840_DS_
00020c   e187     jbset   0x187, 0         	JBSET	PFLAG,0
00020d   a1d7     goto    0x1d7            	GOTO	_00593_DS_
                                           ;;genSkipc:3291: created from rifx:013B5EFC
                                           ;	.line	822; "MC32F7361.c"	tmp_r = 0;
00020e   7638     clrr    0x38             	CLRR	_tmp_r
00020f   7639     clrr    0x39             	CLRR	(_tmp_r + 1)
                                           ;	.line	823; "MC32F7361.c"	tmp_g = 0;
000210   763a     clrr    0x3a             	CLRR	_tmp_g
000211   763b     clrr    0x3b             	CLRR	(_tmp_g + 1)
                                           ;	.line	824; "MC32F7361.c"	tmp_b = 0;
000212   763c     clrr    0x3c             	CLRR	_tmp_b
000213   763d     clrr    0x3d             	CLRR	(_tmp_b + 1)
                                           ;	.line	826; "MC32F7361.c"	time_interval_r = __get_time_interval(0, next_r); // PWM
000214   584c     movar   0x4c             	MOVAR	_next_r
000215   5606     movra   0x6              	MOVRA	STK00
000216   3c00     movai   0                	MOVAI	0x00
000217   832e     call    0x32e            	CALL	___get_time_interval
000218   563f     movra   0x3f             	MOVRA	(_time_interval_r + 1)
000219   5806     movar   0x6              	MOVAR	STK00
00021a   563e     movra   0x3e             	MOVRA	_time_interval_r
                                           ;	.line	827; "MC32F7361.c"	time_interval_g = __get_time_interval(0, next_g);
00021b   584d     movar   0x4d             	MOVAR	_next_g
00021c   5606     movra   0x6              	MOVRA	STK00
00021d   3c00     movai   0                	MOVAI	0x00
00021e   832e     call    0x32e            	CALL	___get_time_interval
00021f   5641     movra   0x41             	MOVRA	(_time_interval_g + 1)
000220   5806     movar   0x6              	MOVAR	STK00
000221   5640     movra   0x40             	MOVRA	_time_interval_g
                                           ;	.line	828; "MC32F7361.c"	time_interval_b = __get_time_interval(0, next_b);
000222   584e     movar   0x4e             	MOVAR	_next_b
000223   5606     movra   0x6              	MOVRA	STK00
000224   3c00     movai   0                	MOVAI	0x00
000225   832e     call    0x32e            	CALL	___get_time_interval
000226   5643     movra   0x43             	MOVRA	(_time_interval_b + 1)
000227   5806     movar   0x6              	MOVAR	STK00
000228   5642     movra   0x42             	MOVRA	_time_interval_b
                                           ;	.line	830; "MC32F7361.c"	if (0 == time_interval_r)
000229   583e     movar   0x3e             	MOVAR	_time_interval_r
00022a   5c3f     orar    0x3f             	ORAR	(_time_interval_r + 1)
00022b   e587     jbset   0x187, 0x2       	JBSET	PFLAG,2
00022c   a22f     goto    0x22f            	GOTO	_00531_DS_
                                           ;	.line	832; "MC32F7361.c"	BREATHING_BREAK_R = 0;
00022d   d051     bclr    0x51, 0          	BCLR	_flag2,0
00022e   a230     goto    0x230            	GOTO	_00532_DS_
                                           _00531_DS_
                                           ;	.line	836; "MC32F7361.c"	BREATHING_BREAK_R = 1;
00022f   c051     bset    0x51, 0          	BSET	_flag2,0
                                           _00532_DS_
                                           ;	.line	839; "MC32F7361.c"	if (0 == time_interval_g)
000230   5840     movar   0x40             	MOVAR	_time_interval_g
000231   5c41     orar    0x41             	ORAR	(_time_interval_g + 1)
000232   e587     jbset   0x187, 0x2       	JBSET	PFLAG,2
000233   a236     goto    0x236            	GOTO	_00534_DS_
                                           ;	.line	841; "MC32F7361.c"	BREATHING_BREAK_G = 0;
000234   d251     bclr    0x51, 0x1        	BCLR	_flag2,1
000235   a237     goto    0x237            	GOTO	_00535_DS_
                                           _00534_DS_
                                           ;	.line	845; "MC32F7361.c"	BREATHING_BREAK_G = 1;
000236   c251     bset    0x51, 0x1        	BSET	_flag2,1
                                           _00535_DS_
                                           ;	.line	848; "MC32F7361.c"	if (0 == time_interval_b)
000237   5842     movar   0x42             	MOVAR	_time_interval_b
000238   5c43     orar    0x43             	ORAR	(_time_interval_b + 1)
000239   e587     jbset   0x187, 0x2       	JBSET	PFLAG,2
00023a   a23d     goto    0x23d            	GOTO	_00537_DS_
                                           ;	.line	850; "MC32F7361.c"	BREATHING_BREAK_B = 0;
00023b   d451     bclr    0x51, 0x2        	BCLR	_flag2,2
00023c   a23e     goto    0x23e            	GOTO	_00538_DS_
                                           _00537_DS_
                                           ;	.line	854; "MC32F7361.c"	BREATHING_BREAK_B = 1;
00023d   c451     bset    0x51, 0x2        	BSET	_flag2,2
                                           _00538_DS_
                                           ;	.line	857; "MC32F7361.c"	for (i = 0; i < BREATHING_LIGHT_OFF_TIME; i++)
00023e   7636     clrr    0x36             	CLRR	_i
00023f   7637     clrr    0x37             	CLRR	(_i + 1)
                                           _00595_DS_
                                           ;	.line	859; "MC32F7361.c"	if (KEY_2_3_PIN == 0) // 450ms
000240   f594     jbclr   0x194, 0x2       	JBCLR	_IOP1bits,2
000241   a24f     goto    0x24f            	GOTO	_00554_DS_
                                           ;	.line	861; "MC32F7361.c"	delay_ms(10);
000242   3c0a     movai   0xa              	MOVAI	0x0a
000243   5604     movra   0x4              	MOVRA	STK02
000244   3c00     movai   0                	MOVAI	0x00
000245   5605     movra   0x5              	MOVRA	STK01
000246   3c00     movai   0                	MOVAI	0x00
000247   5606     movra   0x6              	MOVRA	STK00
000248   3c00     movai   0                	MOVAI	0x00
000249   8637     call    0x637            	CALL	_delay_ms
                                           ;	.line	862; "MC32F7361.c"	if (KEY_2_3_PIN == 0)
00024a   f594     jbclr   0x194, 0x2       	JBCLR	_IOP1bits,2
00024b   a273     goto    0x273            	GOTO	_00555_DS_
                                           ;	.line	864; "MC32F7361.c"	right_key_val = RIGHT_KEY_UP;
00024c   3c04     movai   0x4              	MOVAI	0x04
00024d   5647     movra   0x47             	MOVRA	_right_key_val
                                           ;	.line	866; "MC32F7361.c"	return;
00024e   a32d     goto    0x32d            	GOTO	_00599_DS_
                                           _00554_DS_
                                           ;	.line	869; "MC32F7361.c"	else if (0 == KEY_1_1_PIN)
00024f   f390     jbclr   0x190, 0x1       	JBCLR	_IOP0bits,1
000250   a25e     goto    0x25e            	GOTO	_00551_DS_
                                           ;	.line	871; "MC32F7361.c"	delay_ms(10);
000251   3c0a     movai   0xa              	MOVAI	0x0a
000252   5604     movra   0x4              	MOVRA	STK02
000253   3c00     movai   0                	MOVAI	0x00
000254   5605     movra   0x5              	MOVRA	STK01
000255   3c00     movai   0                	MOVAI	0x00
000256   5606     movra   0x6              	MOVRA	STK00
000257   3c00     movai   0                	MOVAI	0x00
000258   8637     call    0x637            	CALL	_delay_ms
                                           ;	.line	872; "MC32F7361.c"	if (0 == KEY_1_1_PIN)
000259   f390     jbclr   0x190, 0x1       	JBCLR	_IOP0bits,1
00025a   a273     goto    0x273            	GOTO	_00555_DS_
                                           ;	.line	874; "MC32F7361.c"	left_key_val = LEFT_EY_UP;
00025b   3c01     movai   0x1              	MOVAI	0x01
00025c   5646     movra   0x46             	MOVRA	_left_key_val
                                           ;	.line	876; "MC32F7361.c"	return;
00025d   a32d     goto    0x32d            	GOTO	_00599_DS_
                                           _00551_DS_
                                           ;	.line	879; "MC32F7361.c"	else if ((0 == KEY_2_2_PIN) && (0 == LIGHT_SENSOR_PIN) &&
00025e   f794     jbclr   0x194, 0x3       	JBCLR	_IOP1bits,3
00025f   a273     goto    0x273            	GOTO	_00555_DS_
000260   f394     jbclr   0x194, 0x1       	JBCLR	_IOP1bits,1
000261   a273     goto    0x273            	GOTO	_00555_DS_
                                           ;	.line	880; "MC32F7361.c"	(0 == SWITCH_CHANGE_FLAG))
000262   fc50     jbclr   0x50, 0x6        	JBCLR	_flag1,6
000263   a273     goto    0x273            	GOTO	_00555_DS_
                                           ;	.line	883; "MC32F7361.c"	delay_ms(10);
000264   3c0a     movai   0xa              	MOVAI	0x0a
000265   5604     movra   0x4              	MOVRA	STK02
000266   3c00     movai   0                	MOVAI	0x00
000267   5605     movra   0x5              	MOVRA	STK01
000268   3c00     movai   0                	MOVAI	0x00
000269   5606     movra   0x6              	MOVRA	STK00
00026a   3c00     movai   0                	MOVAI	0x00
00026b   8637     call    0x637            	CALL	_delay_ms
                                           ;	.line	884; "MC32F7361.c"	if ((0 == KEY_2_2_PIN) && (0 == LIGHT_SENSOR_PIN))
00026c   f794     jbclr   0x194, 0x3       	JBCLR	_IOP1bits,3
00026d   a273     goto    0x273            	GOTO	_00555_DS_
00026e   f394     jbclr   0x194, 0x1       	JBCLR	_IOP1bits,1
00026f   a273     goto    0x273            	GOTO	_00555_DS_
                                           ;	.line	887; "MC32F7361.c"	RGB_ENABLE = 0; // 
000270   d650     bclr    0x50, 0x3        	BCLR	_flag1,3
                                           ;	.line	888; "MC32F7361.c"	SWITCH_CHANGE_FLAG = 1;
000271   cc50     bset    0x50, 0x6        	BSET	_flag1,6
                                           ;	.line	889; "MC32F7361.c"	return;
000272   a32d     goto    0x32d            	GOTO	_00599_DS_
                                           _00555_DS_
                                           ;	.line	896; "MC32F7361.c"	tmp_r += 100;
000273   3c64     movai   0x64             	MOVAI	0x64
000274   7e38     addra   0x38             	ADDRA	_tmp_r
000275   f187     jbclr   0x187, 0         	JBCLR	PFLAG,0
000276   6639     incr    0x39             	INCR	(_tmp_r + 1)
                                           ;	.line	897; "MC32F7361.c"	tmp_g += 100;
000277   3c64     movai   0x64             	MOVAI	0x64
000278   7e3a     addra   0x3a             	ADDRA	_tmp_g
000279   f187     jbclr   0x187, 0         	JBCLR	PFLAG,0
00027a   663b     incr    0x3b             	INCR	(_tmp_g + 1)
                                           ;	.line	898; "MC32F7361.c"	tmp_b += 100;
00027b   3c64     movai   0x64             	MOVAI	0x64
00027c   7e3c     addra   0x3c             	ADDRA	_tmp_b
00027d   f187     jbclr   0x187, 0         	JBCLR	PFLAG,0
00027e   663d     incr    0x3d             	INCR	(_tmp_b + 1)
                                           ;	.line	901; "MC32F7361.c"	if (cur_r > 0 && tmp_r >= time_interval_r)
00027f   3c00     movai   0                	MOVAI	0x00
000280   5c48     orar    0x48             	ORAR	_cur_r
000281   f587     jbclr   0x187, 0x2       	JBCLR	PFLAG,2
000282   a290     goto    0x290            	GOTO	_00557_DS_
000283   583f     movar   0x3f             	MOVAR	(_time_interval_r + 1)
000284   4839     rsubar  0x39             	RSUBAR	(_tmp_r + 1)
000285   e587     jbset   0x187, 0x2       	JBSET	PFLAG,2
000286   a289     goto    0x289            	GOTO	_00841_DS_
000287   583e     movar   0x3e             	MOVAR	_time_interval_r
000288   4838     rsubar  0x38             	RSUBAR	_tmp_r
                                           _00841_DS_
000289   e187     jbset   0x187, 0         	JBSET	PFLAG,0
00028a   a290     goto    0x290            	GOTO	_00557_DS_
                                           ;;genSkipc:3291: created from rifx:013B5EFC
                                           ;	.line	904; "MC32F7361.c"	tmp_r = 0;
00028b   7638     clrr    0x38             	CLRR	_tmp_r
00028c   7639     clrr    0x39             	CLRR	(_tmp_r + 1)
                                           ;	.line	905; "MC32F7361.c"	cur_r--;
00028d   6e48     decr    0x48             	DECR	_cur_r
                                           ;	.line	906; "MC32F7361.c"	color_set_component_r(cur_r);
00028e   5848     movar   0x48             	MOVAR	_cur_r
00028f   854a     call    0x54a            	CALL	_color_set_component_r
                                           _00557_DS_
                                           ;	.line	909; "MC32F7361.c"	if (cur_g > 0 && tmp_g >= time_interval_g)
000290   3c00     movai   0                	MOVAI	0x00
000291   5c49     orar    0x49             	ORAR	_cur_g
000292   f587     jbclr   0x187, 0x2       	JBCLR	PFLAG,2
000293   a2a1     goto    0x2a1            	GOTO	_00560_DS_
000294   5841     movar   0x41             	MOVAR	(_time_interval_g + 1)
000295   483b     rsubar  0x3b             	RSUBAR	(_tmp_g + 1)
000296   e587     jbset   0x187, 0x2       	JBSET	PFLAG,2
000297   a29a     goto    0x29a            	GOTO	_00842_DS_
000298   5840     movar   0x40             	MOVAR	_time_interval_g
000299   483a     rsubar  0x3a             	RSUBAR	_tmp_g
                                           _00842_DS_
00029a   e187     jbset   0x187, 0         	JBSET	PFLAG,0
00029b   a2a1     goto    0x2a1            	GOTO	_00560_DS_
                                           ;;genSkipc:3291: created from rifx:013B5EFC
                                           ;	.line	912; "MC32F7361.c"	tmp_g = 0;
00029c   763a     clrr    0x3a             	CLRR	_tmp_g
00029d   763b     clrr    0x3b             	CLRR	(_tmp_g + 1)
                                           ;	.line	913; "MC32F7361.c"	cur_g--;
00029e   6e49     decr    0x49             	DECR	_cur_g
                                           ;	.line	914; "MC32F7361.c"	color_set_component_g(cur_g);
00029f   5849     movar   0x49             	MOVAR	_cur_g
0002a0   8544     call    0x544            	CALL	_color_set_component_g
                                           _00560_DS_
                                           ;	.line	917; "MC32F7361.c"	if (cur_b > 0 && tmp_b >= time_interval_b)
0002a1   3c00     movai   0                	MOVAI	0x00
0002a2   5c4a     orar    0x4a             	ORAR	_cur_b
0002a3   f587     jbclr   0x187, 0x2       	JBCLR	PFLAG,2
0002a4   a2b2     goto    0x2b2            	GOTO	_00563_DS_
0002a5   5843     movar   0x43             	MOVAR	(_time_interval_b + 1)
0002a6   483d     rsubar  0x3d             	RSUBAR	(_tmp_b + 1)
0002a7   e587     jbset   0x187, 0x2       	JBSET	PFLAG,2
0002a8   a2ab     goto    0x2ab            	GOTO	_00843_DS_
0002a9   5842     movar   0x42             	MOVAR	_time_interval_b
0002aa   483c     rsubar  0x3c             	RSUBAR	_tmp_b
                                           _00843_DS_
0002ab   e187     jbset   0x187, 0         	JBSET	PFLAG,0
0002ac   a2b2     goto    0x2b2            	GOTO	_00563_DS_
                                           ;;genSkipc:3291: created from rifx:013B5EFC
                                           ;	.line	920; "MC32F7361.c"	tmp_b = 0;
0002ad   763c     clrr    0x3c             	CLRR	_tmp_b
0002ae   763d     clrr    0x3d             	CLRR	(_tmp_b + 1)
                                           ;	.line	921; "MC32F7361.c"	cur_b--;
0002af   6e4a     decr    0x4a             	DECR	_cur_b
                                           ;	.line	922; "MC32F7361.c"	color_set_component_b(cur_b);
0002b0   584a     movar   0x4a             	MOVAR	_cur_b
0002b1   853e     call    0x53e            	CALL	_color_set_component_b
                                           _00563_DS_
                                           ;	.line	928; "MC32F7361.c"	if ((BREATHING_BREAK_R && 0 == cur_r) ||
0002b2   e051     jbset   0x51, 0          	JBSET	_flag2,0
0002b3   a2b8     goto    0x2b8            	GOTO	_00569_DS_
0002b4   3c00     movai   0                	MOVAI	0x00
0002b5   5c48     orar    0x48             	ORAR	_cur_r
0002b6   f587     jbclr   0x187, 0x2       	JBCLR	PFLAG,2
0002b7   a2d7     goto    0x2d7            	GOTO	_00572_DS_
                                           _00569_DS_
                                           ;	.line	929; "MC32F7361.c"	(BREATHING_BREAK_G && 0 == cur_g) ||
0002b8   e251     jbset   0x51, 0x1        	JBSET	_flag2,1
0002b9   a2be     goto    0x2be            	GOTO	_00571_DS_
0002ba   3c00     movai   0                	MOVAI	0x00
0002bb   5c49     orar    0x49             	ORAR	_cur_g
0002bc   f587     jbclr   0x187, 0x2       	JBCLR	PFLAG,2
0002bd   a2d7     goto    0x2d7            	GOTO	_00572_DS_
                                           _00571_DS_
                                           ;	.line	930; "MC32F7361.c"	(BREATHING_BREAK_B && 0 == cur_b))
0002be   e451     jbset   0x51, 0x2        	JBSET	_flag2,2
0002bf   a2c4     goto    0x2c4            	GOTO	_00566_DS_
0002c0   3c00     movai   0                	MOVAI	0x00
0002c1   5c4a     orar    0x4a             	ORAR	_cur_b
0002c2   f587     jbclr   0x187, 0x2       	JBCLR	PFLAG,2
0002c3   a2d7     goto    0x2d7            	GOTO	_00572_DS_
                                           _00566_DS_
                                           ;	.line	937; "MC32F7361.c"	delay_ms(1);
0002c4   3c01     movai   0x1              	MOVAI	0x01
0002c5   5604     movra   0x4              	MOVRA	STK02
0002c6   3c00     movai   0                	MOVAI	0x00
0002c7   5605     movra   0x5              	MOVRA	STK01
0002c8   3c00     movai   0                	MOVAI	0x00
0002c9   5606     movra   0x6              	MOVRA	STK00
0002ca   3c00     movai   0                	MOVAI	0x00
0002cb   8637     call    0x637            	CALL	_delay_ms
                                           ;	.line	857; "MC32F7361.c"	for (i = 0; i < BREATHING_LIGHT_OFF_TIME; i++)
0002cc   6636     incr    0x36             	INCR	_i
0002cd   f587     jbclr   0x187, 0x2       	JBCLR	PFLAG,2
0002ce   6637     incr    0x37             	INCR	(_i + 1)
                                           ;;unsigned compare: left < lit(0x1C2=450), size=2
0002cf   3c01     movai   0x1              	MOVAI	0x01
0002d0   4837     rsubar  0x37             	RSUBAR	(_i + 1)
0002d1   e587     jbset   0x187, 0x2       	JBSET	PFLAG,2
0002d2   a2d5     goto    0x2d5            	GOTO	_00844_DS_
0002d3   3cc2     movai   0xc2             	MOVAI	0xc2
0002d4   4836     rsubar  0x36             	RSUBAR	_i
                                           _00844_DS_
0002d5   e187     jbset   0x187, 0         	JBSET	PFLAG,0
0002d6   a240     goto    0x240            	GOTO	_00595_DS_
                                           ;;genSkipc:3291: created from rifx:013B5EFC
                                           ;;gen.c:6570: size=0, offset=0, AOP_TYPE(res)=8
                                           _00572_DS_
                                           ;	.line	941; "MC32F7361.c"	color[0] = 0x00;
0002d7   7633     clrr    0x33             	CLRR	(_color + 0)
                                           ;;gen.c:6570: size=0, offset=0, AOP_TYPE(res)=8
                                           ;	.line	942; "MC32F7361.c"	color[1] = 0x00;
0002d8   7634     clrr    0x34             	CLRR	(_color + 1)
                                           ;;gen.c:6570: size=0, offset=0, AOP_TYPE(res)=8
                                           ;	.line	943; "MC32F7361.c"	color[2] = 0x00;
0002d9   7635     clrr    0x35             	CLRR	(_color + 2)
                                           ;	.line	944; "MC32F7361.c"	color_show(color); // 
0002da   3c00     movai   0                	MOVAI	high (_color + 0)
0002db   5610     movra   0x10             	MOVRA	r0x1027
0002dc   3c33     movai   0x33             	MOVAI	(_color + 0)
0002dd   5612     movra   0x12             	MOVRA	r0x1028
0002de   7611     clrr    0x11             	CLRR	r0x1026
0002df   5812     movar   0x12             	MOVAR	r0x1028
0002e0   5605     movra   0x5              	MOVRA	STK01
0002e1   5810     movar   0x10             	MOVAR	r0x1027
0002e2   5606     movra   0x6              	MOVRA	STK00
0002e3   3c00     movai   0                	MOVAI	0x00
0002e4   8550     call    0x550            	CALL	_color_show
                                           ;	.line	947; "MC32F7361.c"	for (i = 0; i < 50; i++)
0002e5   7636     clrr    0x36             	CLRR	_i
0002e6   7637     clrr    0x37             	CLRR	(_i + 1)
                                           _00597_DS_
                                           ;	.line	949; "MC32F7361.c"	if (KEY_2_3_PIN == 0)
0002e7   f594     jbclr   0x194, 0x2       	JBCLR	_IOP1bits,2
0002e8   a2f6     goto    0x2f6            	GOTO	_00588_DS_
                                           ;	.line	951; "MC32F7361.c"	delay_ms(10);
0002e9   3c0a     movai   0xa              	MOVAI	0x0a
0002ea   5604     movra   0x4              	MOVRA	STK02
0002eb   3c00     movai   0                	MOVAI	0x00
0002ec   5605     movra   0x5              	MOVRA	STK01
0002ed   3c00     movai   0                	MOVAI	0x00
0002ee   5606     movra   0x6              	MOVRA	STK00
0002ef   3c00     movai   0                	MOVAI	0x00
0002f0   8637     call    0x637            	CALL	_delay_ms
                                           ;	.line	952; "MC32F7361.c"	if (KEY_2_3_PIN == 0)
0002f1   f594     jbclr   0x194, 0x2       	JBCLR	_IOP1bits,2
0002f2   a31a     goto    0x31a            	GOTO	_00589_DS_
                                           ;	.line	954; "MC32F7361.c"	right_key_val = RIGHT_KEY_UP;
0002f3   3c04     movai   0x4              	MOVAI	0x04
0002f4   5647     movra   0x47             	MOVRA	_right_key_val
                                           ;	.line	956; "MC32F7361.c"	return;
0002f5   a32d     goto    0x32d            	GOTO	_00599_DS_
                                           _00588_DS_
                                           ;	.line	959; "MC32F7361.c"	else if (0 == KEY_1_1_PIN)
0002f6   f390     jbclr   0x190, 0x1       	JBCLR	_IOP0bits,1
0002f7   a305     goto    0x305            	GOTO	_00585_DS_
                                           ;	.line	961; "MC32F7361.c"	delay_ms(10);
0002f8   3c0a     movai   0xa              	MOVAI	0x0a
0002f9   5604     movra   0x4              	MOVRA	STK02
0002fa   3c00     movai   0                	MOVAI	0x00
0002fb   5605     movra   0x5              	MOVRA	STK01
0002fc   3c00     movai   0                	MOVAI	0x00
0002fd   5606     movra   0x6              	MOVRA	STK00
0002fe   3c00     movai   0                	MOVAI	0x00
0002ff   8637     call    0x637            	CALL	_delay_ms
                                           ;	.line	962; "MC32F7361.c"	if (0 == KEY_1_1_PIN)
000300   f390     jbclr   0x190, 0x1       	JBCLR	_IOP0bits,1
000301   a31a     goto    0x31a            	GOTO	_00589_DS_
                                           ;	.line	964; "MC32F7361.c"	left_key_val = LEFT_EY_UP;
000302   3c01     movai   0x1              	MOVAI	0x01
000303   5646     movra   0x46             	MOVRA	_left_key_val
                                           ;	.line	966; "MC32F7361.c"	return;
000304   a32d     goto    0x32d            	GOTO	_00599_DS_
                                           _00585_DS_
                                           ;	.line	969; "MC32F7361.c"	else if ((0 == KEY_2_2_PIN) && (0 == LIGHT_SENSOR_PIN) &&
000305   f794     jbclr   0x194, 0x3       	JBCLR	_IOP1bits,3
000306   a31a     goto    0x31a            	GOTO	_00589_DS_
000307   f394     jbclr   0x194, 0x1       	JBCLR	_IOP1bits,1
000308   a31a     goto    0x31a            	GOTO	_00589_DS_
                                           ;	.line	970; "MC32F7361.c"	(0 == SWITCH_CHANGE_FLAG))
000309   fc50     jbclr   0x50, 0x6        	JBCLR	_flag1,6
00030a   a31a     goto    0x31a            	GOTO	_00589_DS_
                                           ;	.line	973; "MC32F7361.c"	delay_ms(10);
00030b   3c0a     movai   0xa              	MOVAI	0x0a
00030c   5604     movra   0x4              	MOVRA	STK02
00030d   3c00     movai   0                	MOVAI	0x00
00030e   5605     movra   0x5              	MOVRA	STK01
00030f   3c00     movai   0                	MOVAI	0x00
000310   5606     movra   0x6              	MOVRA	STK00
000311   3c00     movai   0                	MOVAI	0x00
000312   8637     call    0x637            	CALL	_delay_ms
                                           ;	.line	974; "MC32F7361.c"	if ((0 == KEY_2_2_PIN) && (0 == LIGHT_SENSOR_PIN))
000313   f794     jbclr   0x194, 0x3       	JBCLR	_IOP1bits,3
000314   a31a     goto    0x31a            	GOTO	_00589_DS_
000315   f394     jbclr   0x194, 0x1       	JBCLR	_IOP1bits,1
000316   a31a     goto    0x31a            	GOTO	_00589_DS_
                                           ;	.line	977; "MC32F7361.c"	RGB_ENABLE = 0; // 
000317   d650     bclr    0x50, 0x3        	BCLR	_flag1,3
                                           ;	.line	978; "MC32F7361.c"	SWITCH_CHANGE_FLAG = 1;
000318   cc50     bset    0x50, 0x6        	BSET	_flag1,6
                                           ;	.line	979; "MC32F7361.c"	return;
000319   a32d     goto    0x32d            	GOTO	_00599_DS_
                                           _00589_DS_
                                           ;	.line	982; "MC32F7361.c"	delay_ms(1);
00031a   3c01     movai   0x1              	MOVAI	0x01
00031b   5604     movra   0x4              	MOVRA	STK02
00031c   3c00     movai   0                	MOVAI	0x00
00031d   5605     movra   0x5              	MOVRA	STK01
00031e   3c00     movai   0                	MOVAI	0x00
00031f   5606     movra   0x6              	MOVRA	STK00
000320   3c00     movai   0                	MOVAI	0x00
000321   8637     call    0x637            	CALL	_delay_ms
                                           ;	.line	947; "MC32F7361.c"	for (i = 0; i < 50; i++)
000322   6636     incr    0x36             	INCR	_i
000323   f587     jbclr   0x187, 0x2       	JBCLR	PFLAG,2
000324   6637     incr    0x37             	INCR	(_i + 1)
                                           ;;unsigned compare: left < lit(0x32=50), size=2
000325   3c00     movai   0                	MOVAI	0x00
000326   4837     rsubar  0x37             	RSUBAR	(_i + 1)
000327   e587     jbset   0x187, 0x2       	JBSET	PFLAG,2
000328   a32b     goto    0x32b            	GOTO	_00845_DS_
000329   3c32     movai   0x32             	MOVAI	0x32
00032a   4836     rsubar  0x36             	RSUBAR	_i
                                           _00845_DS_
00032b   e187     jbset   0x187, 0         	JBSET	PFLAG,0
00032c   a2e7     goto    0x2e7            	GOTO	_00597_DS_
                                           ;;genSkipc:3291: created from rifx:013B5EFC
                                           _00599_DS_
                                           ;	.line	984; "MC32F7361.c"	}
00032d   000c     return                   	RETURN	
                                           ; exit point of ___color_breathing
                                           
                                           ;***
                                           ;  pBlock Stats: dbName = C
                                           ;***
                                           ;entry:  ___get_time_interval	;Function start
                                           ; 2 exit points
                                           ;has an exit
                                           ;functions called:
                                           ;   __divulong
                                           ;   __divulong
                                           ;   __divulong
                                           ;   __divulong
                                           ;14 compiler assigned registers:
                                           ;   r0x101D
                                           ;   STK00
                                           ;   r0x101E
                                           ;   r0x101F
                                           ;   r0x1020
                                           ;   r0x1021
                                           ;   STK06
                                           ;   STK05
                                           ;   STK04
                                           ;   STK03
                                           ;   STK02
                                           ;   STK01
                                           ;   r0x1022
                                           ;   r0x1023
                                           ;; Starting pCode block
                                           ___get_time_interval	;Function start
                                           ; 2 exit points
                                           ;	.line	648; "MC32F7361.c"	u16 __get_time_interval(u8 light_on_off, u8 color_component)
00032e   560a     movra   0xa              	MOVRA	r0x101D
00032f   5806     movar   0x6              	MOVAR	STK00
000330   5609     movra   0x9              	MOVRA	r0x101E
                                           ;	.line	651; "MC32F7361.c"	if (0 == color_component)
000331   3c00     movai   0                	MOVAI	0x00
000332   5c09     orar    0x9              	ORAR	r0x101E
000333   e587     jbset   0x187, 0x2       	JBSET	PFLAG,2
000334   a339     goto    0x339            	GOTO	_00481_DS_
                                           ;	.line	653; "MC32F7361.c"	return 0; // 00
000335   3c00     movai   0                	MOVAI	0x00
000336   5606     movra   0x6              	MOVRA	STK00
000337   3c00     movai   0                	MOVAI	0x00
000338   a37d     goto    0x37d            	GOTO	_00485_DS_
                                           _00481_DS_
                                           ;	.line	656; "MC32F7361.c"	if (light_on_off)
000339   3c00     movai   0                	MOVAI	0x00
00033a   5c0a     orar    0xa              	ORAR	r0x101D
00033b   f587     jbclr   0x187, 0x2       	JBCLR	PFLAG,2
00033c   a35d     goto    0x35d            	GOTO	_00483_DS_
                                           ;;125	MOVAR	r0x101E
                                           ;	.line	659; "MC32F7361.c"	return (u32)BREATHING_LIGHT_ON_TIME * 100 / color_component;
00033d   7608     clrr    0x8              	CLRR	r0x101F
00033e   7607     clrr    0x7              	CLRR	r0x1020
00033f   760b     clrr    0xb              	CLRR	r0x1021
                                           ;;124	MOVAR	r0x101D
000340   5809     movar   0x9              	MOVAR	r0x101E
000341   560a     movra   0xa              	MOVRA	r0x101D
000342   5600     movra   0                	MOVRA	STK06
000343   3c00     movai   0                	MOVAI	0x00
000344   5601     movra   0x1              	MOVRA	STK05
000345   3c00     movai   0                	MOVAI	0x00
000346   5602     movra   0x2              	MOVRA	STK04
000347   3c00     movai   0                	MOVAI	0x00
000348   5603     movra   0x3              	MOVRA	STK03
000349   3c08     movai   0x8              	MOVAI	0x08
00034a   5604     movra   0x4              	MOVRA	STK02
00034b   3c4c     movai   0x4c             	MOVAI	0x4c
00034c   5605     movra   0x5              	MOVRA	STK01
00034d   3c01     movai   0x1              	MOVAI	0x01
00034e   5606     movra   0x6              	MOVRA	STK00
00034f   3c00     movai   0                	MOVAI	0x00
000350   8663     call    0x663            	CALL	__divulong
000351   560b     movra   0xb              	MOVRA	r0x1021
000352   5806     movar   0x6              	MOVAR	STK00
000353   5607     movra   0x7              	MOVRA	r0x1020
000354   5805     movar   0x5              	MOVAR	STK01
000355   5608     movra   0x8              	MOVRA	r0x101F
000356   5804     movar   0x4              	MOVAR	STK02
000357   560a     movra   0xa              	MOVRA	r0x101D
                                           ;;119	MOVAR	r0x101D
                                           ;;108	MOVAR	r0x101F
                                           ;;106	MOVRA	r0x1023
                                           ;;118	MOVAR	r0x1022
000358   580a     movar   0xa              	MOVAR	r0x101D
000359   560c     movra   0xc              	MOVRA	r0x1022
00035a   5606     movra   0x6              	MOVRA	STK00
                                           ;;107	MOVAR	r0x1023
00035b   5808     movar   0x8              	MOVAR	r0x101F
00035c   a37d     goto    0x37d            	GOTO	_00485_DS_
                                           ;;122	MOVAR	r0x101E
                                           _00483_DS_
                                           ;	.line	666; "MC32F7361.c"	return (u32)BREATHING_LIGHT_OFF_TIME * 100 / color_component;
00035d   7608     clrr    0x8              	CLRR	r0x101F
00035e   7607     clrr    0x7              	CLRR	r0x1020
00035f   760b     clrr    0xb              	CLRR	r0x1021
                                           ;;121	MOVAR	r0x101D
000360   5809     movar   0x9              	MOVAR	r0x101E
000361   560a     movra   0xa              	MOVRA	r0x101D
000362   5600     movra   0                	MOVRA	STK06
000363   3c00     movai   0                	MOVAI	0x00
000364   5601     movra   0x1              	MOVRA	STK05
000365   3c00     movai   0                	MOVAI	0x00
000366   5602     movra   0x2              	MOVRA	STK04
000367   3c00     movai   0                	MOVAI	0x00
000368   5603     movra   0x3              	MOVRA	STK03
000369   3cc8     movai   0xc8             	MOVAI	0xc8
00036a   5604     movra   0x4              	MOVRA	STK02
00036b   3caf     movai   0xaf             	MOVAI	0xaf
00036c   5605     movra   0x5              	MOVRA	STK01
00036d   3c00     movai   0                	MOVAI	0x00
00036e   5606     movra   0x6              	MOVRA	STK00
00036f   3c00     movai   0                	MOVAI	0x00
000370   8663     call    0x663            	CALL	__divulong
000371   5607     movra   0x7              	MOVRA	r0x1020
000372   5806     movar   0x6              	MOVAR	STK00
000373   5608     movra   0x8              	MOVRA	r0x101F
000374   5805     movar   0x5              	MOVAR	STK01
000375   560c     movra   0xc              	MOVRA	r0x1022
000376   5609     movra   0x9              	MOVRA	r0x101E
000377   5804     movar   0x4              	MOVAR	STK02
000378   560b     movra   0xb              	MOVRA	r0x1021
000379   560a     movra   0xa              	MOVRA	r0x101D
                                           ;;116	MOVAR	r0x101D
                                           ;;117	MOVAR	r0x101E
00037a   580b     movar   0xb              	MOVAR	r0x1021
00037b   5606     movra   0x6              	MOVRA	STK00
00037c   580c     movar   0xc              	MOVAR	r0x1022
                                           _00485_DS_
                                           ;	.line	673; "MC32F7361.c"	}
00037d   000c     return                   	RETURN	
                                           ; exit point of ___get_time_interval
                                           
                                           ;***
                                           ;  pBlock Stats: dbName = C
                                           ;***
                                           ;entry:  _mode_gradient	;Function start
                                           ; 2 exit points
                                           ;has an exit
                                           ;functions called:
                                           ;   __mulchar
                                           ;   ___color_gradient
                                           ;   __mulchar
                                           ;   ___color_gradient
                                           ;7 compiler assigned registers:
                                           ;   STK00
                                           ;   r0x102B
                                           ;   r0x102C
                                           ;   r0x102D
                                           ;   r0x102E
                                           ;   r0x102F
                                           ;   STK01
                                           ;; Starting pCode block
                                           _mode_gradient	;Function start
                                           ; 2 exit points
                                           ;	.line	627; "MC32F7361.c"	__color_gradient(color_buf[cur_color_index]);
00037e   3c03     movai   0x3              	MOVAI	0x03
00037f   5606     movra   0x6              	MOVRA	STK00
000380   584b     movar   0x4b             	MOVAR	_cur_color_index
000381   86f9     call    0x6f9            	CALL	__mulchar
000382   5615     movra   0x15             	MOVRA	r0x102B
000383   5815     movar   0x15             	MOVAR	r0x102B
000384   3fdb     addai   0xdb             	ADDAI	(_color_buf + 0)
000385   5615     movra   0x15             	MOVRA	r0x102B
000386   3c06     movai   0x6              	MOVAI	high (_color_buf + 0)
000387   f187     jbclr   0x187, 0         	JBCLR	PFLAG,0
000388   3f01     addai   0x1              	ADDAI	0x01
000389   5616     movra   0x16             	MOVRA	r0x102D
                                           ;;1	MOVRA	r0x102C
                                           ;;102	MOVAR	r0x102C
                                           ;;105	MOVAR	r0x102B
                                           ;;103	MOVRA	r0x102E
00038a   3c80     movai   0x80             	MOVAI	0x80
00038b   5617     movra   0x17             	MOVRA	r0x102F
                                           ;;104	MOVAR	r0x102E
00038c   5815     movar   0x15             	MOVAR	r0x102B
00038d   5605     movra   0x5              	MOVRA	STK01
00038e   5816     movar   0x16             	MOVAR	r0x102D
00038f   5606     movra   0x6              	MOVRA	STK00
000390   5817     movar   0x17             	MOVAR	r0x102F
000391   839d     call    0x39d            	CALL	___color_gradient
                                           ;	.line	629; "MC32F7361.c"	if (0 == SWITCH_CHANGE_FLAG)
000392   fc50     jbclr   0x50, 0x6        	JBCLR	_flag1,6
000393   a39b     goto    0x39b            	GOTO	_00473_DS_
                                           ;	.line	632; "MC32F7361.c"	cur_color_index++;
000394   664b     incr    0x4b             	INCR	_cur_color_index
                                           ;	.line	633; "MC32F7361.c"	if (COLOR_NUMS == cur_color_index) // 
000395   584b     movar   0x4b             	MOVAR	_cur_color_index
000396   390a     xorai   0xa              	XORAI	0x0a
000397   e587     jbset   0x187, 0x2       	JBSET	PFLAG,2
000398   a39c     goto    0x39c            	GOTO	_00475_DS_
                                           ;	.line	635; "MC32F7361.c"	cur_color_index = 0;
000399   764b     clrr    0x4b             	CLRR	_cur_color_index
00039a   a39c     goto    0x39c            	GOTO	_00475_DS_
                                           _00473_DS_
                                           ;	.line	641; "MC32F7361.c"	SWITCH_CHANGE_FLAG = 0;
00039b   dc50     bclr    0x50, 0x6        	BCLR	_flag1,6
                                           _00475_DS_
                                           ;	.line	643; "MC32F7361.c"	}
00039c   000c     return                   	RETURN	
                                           ; exit point of _mode_gradient
                                           
                                           ;***
                                           ;  pBlock Stats: dbName = C
                                           ;***
                                           ;entry:  ___color_gradient	;Function start
                                           ; 2 exit points
                                           ;has an exit
                                           ;functions called:
                                           ;   __gptrget1
                                           ;   __gptrget1
                                           ;   __gptrget1
                                           ;   ___get_gradient_adjust_time
                                           ;   ___get_gradient_adjust_time
                                           ;   ___get_gradient_adjust_time
                                           ;   _delay_ms
                                           ;   _delay_ms
                                           ;   _delay_ms
                                           ;   _color_set_component_r
                                           ;   _color_set_component_g
                                           ;   _color_set_component_b
                                           ;   _delay_ms
                                           ;   _delay_ms
                                           ;   _delay_ms
                                           ;   _delay_ms
                                           ;   _delay_ms
                                           ;   _delay_ms
                                           ;   __gptrget1
                                           ;   __gptrget1
                                           ;   __gptrget1
                                           ;   ___get_gradient_adjust_time
                                           ;   ___get_gradient_adjust_time
                                           ;   ___get_gradient_adjust_time
                                           ;   _delay_ms
                                           ;   _delay_ms
                                           ;   _delay_ms
                                           ;   _color_set_component_r
                                           ;   _color_set_component_g
                                           ;   _color_set_component_b
                                           ;   _delay_ms
                                           ;   _delay_ms
                                           ;   _delay_ms
                                           ;   _delay_ms
                                           ;   _delay_ms
                                           ;   _delay_ms
                                           ;9 compiler assigned registers:
                                           ;   r0x1025
                                           ;   STK00
                                           ;   r0x1026
                                           ;   STK01
                                           ;   r0x1027
                                           ;   r0x1028
                                           ;   r0x1029
                                           ;   r0x102A
                                           ;   STK02
                                           ;; Starting pCode block
                                           ___color_gradient	;Function start
                                           ; 2 exit points
                                           ;	.line	391; "MC32F7361.c"	void __color_gradient(u8 *next_color)
00039d   560f     movra   0xf              	MOVRA	r0x1025
00039e   5806     movar   0x6              	MOVAR	STK00
00039f   5611     movra   0x11             	MOVRA	r0x1026
0003a0   5805     movar   0x5              	MOVAR	STK01
0003a1   5610     movra   0x10             	MOVRA	r0x1027
                                           ;	.line	393; "MC32F7361.c"	next_r = next_color[0];
0003a2   5810     movar   0x10             	MOVAR	r0x1027
0003a3   5605     movra   0x5              	MOVRA	STK01
0003a4   5811     movar   0x11             	MOVAR	r0x1026
0003a5   5606     movra   0x6              	MOVRA	STK00
0003a6   580f     movar   0xf              	MOVAR	r0x1025
0003a7   8710     call    0x710            	CALL	__gptrget1
0003a8   564c     movra   0x4c             	MOVRA	_next_r
                                           ;	.line	394; "MC32F7361.c"	next_g = next_color[1];
0003a9   3c01     movai   0x1              	MOVAI	0x01
0003aa   7c10     addar   0x10             	ADDAR	r0x1027
0003ab   5612     movra   0x12             	MOVRA	r0x1028
0003ac   7613     clrr    0x13             	CLRR	r0x1029
0003ad   5213     rlr     0x13             	RLR	r0x1029
0003ae   5811     movar   0x11             	MOVAR	r0x1026
0003af   7e13     addra   0x13             	ADDRA	r0x1029
0003b0   7614     clrr    0x14             	CLRR	r0x102A
0003b1   5214     rlr     0x14             	RLR	r0x102A
0003b2   580f     movar   0xf              	MOVAR	r0x1025
0003b3   7e14     addra   0x14             	ADDRA	r0x102A
0003b4   5812     movar   0x12             	MOVAR	r0x1028
0003b5   5605     movra   0x5              	MOVRA	STK01
0003b6   5813     movar   0x13             	MOVAR	r0x1029
0003b7   5606     movra   0x6              	MOVRA	STK00
0003b8   5814     movar   0x14             	MOVAR	r0x102A
0003b9   8710     call    0x710            	CALL	__gptrget1
0003ba   564d     movra   0x4d             	MOVRA	_next_g
                                           ;	.line	395; "MC32F7361.c"	next_b = next_color[2];
0003bb   3c02     movai   0x2              	MOVAI	0x02
0003bc   7e10     addra   0x10             	ADDRA	r0x1027
0003bd   f187     jbclr   0x187, 0         	JBCLR	PFLAG,0
0003be   6611     incr    0x11             	INCR	r0x1026
0003bf   f587     jbclr   0x187, 0x2       	JBCLR	PFLAG,2
0003c0   660f     incr    0xf              	INCR	r0x1025
0003c1   5810     movar   0x10             	MOVAR	r0x1027
0003c2   5605     movra   0x5              	MOVRA	STK01
0003c3   5811     movar   0x11             	MOVAR	r0x1026
0003c4   5606     movra   0x6              	MOVRA	STK00
0003c5   580f     movar   0xf              	MOVAR	r0x1025
0003c6   8710     call    0x710            	CALL	__gptrget1
0003c7   564e     movra   0x4e             	MOVRA	_next_b
                                           ;	.line	402; "MC32F7361.c"	if (cur_r > next_r)
0003c8   5848     movar   0x48             	MOVAR	_cur_r
0003c9   484c     rsubar  0x4c             	RSUBAR	_next_r
0003ca   f187     jbclr   0x187, 0         	JBCLR	PFLAG,0
0003cb   a3d1     goto    0x3d1            	GOTO	_00202_DS_
                                           ;;genSkipc:3291: created from rifx:013B5EFC
                                           ;	.line	404; "MC32F7361.c"	diff_r = cur_r - next_r;
0003cc   584c     movar   0x4c             	MOVAR	_next_r
0003cd   4848     rsubar  0x48             	RSUBAR	_cur_r
0003ce   5610     movra   0x10             	MOVRA	r0x1027
                                           ;	.line	405; "MC32F7361.c"	DIR_R = 0; // 
0003cf   d050     bclr    0x50, 0          	BCLR	_flag1,0
0003d0   a3d5     goto    0x3d5            	GOTO	_00203_DS_
                                           _00202_DS_
                                           ;	.line	409; "MC32F7361.c"	diff_r = next_r - cur_r;
0003d1   5848     movar   0x48             	MOVAR	_cur_r
0003d2   484c     rsubar  0x4c             	RSUBAR	_next_r
0003d3   5610     movra   0x10             	MOVRA	r0x1027
                                           ;	.line	410; "MC32F7361.c"	DIR_R = 1; // 
0003d4   c050     bset    0x50, 0          	BSET	_flag1,0
                                           _00203_DS_
                                           ;	.line	413; "MC32F7361.c"	if (cur_g > next_g)
0003d5   5849     movar   0x49             	MOVAR	_cur_g
0003d6   484d     rsubar  0x4d             	RSUBAR	_next_g
0003d7   f187     jbclr   0x187, 0         	JBCLR	PFLAG,0
0003d8   a3de     goto    0x3de            	GOTO	_00205_DS_
                                           ;;genSkipc:3291: created from rifx:013B5EFC
                                           ;	.line	415; "MC32F7361.c"	diff_g = cur_g - next_g;
0003d9   584d     movar   0x4d             	MOVAR	_next_g
0003da   4849     rsubar  0x49             	RSUBAR	_cur_g
0003db   5611     movra   0x11             	MOVRA	r0x1026
                                           ;	.line	416; "MC32F7361.c"	DIR_G = 0; // 
0003dc   d250     bclr    0x50, 0x1        	BCLR	_flag1,1
0003dd   a3e2     goto    0x3e2            	GOTO	_00206_DS_
                                           _00205_DS_
                                           ;	.line	420; "MC32F7361.c"	diff_g = next_g - cur_g;
0003de   5849     movar   0x49             	MOVAR	_cur_g
0003df   484d     rsubar  0x4d             	RSUBAR	_next_g
0003e0   5611     movra   0x11             	MOVRA	r0x1026
                                           ;	.line	421; "MC32F7361.c"	DIR_G = 1; // 
0003e1   c250     bset    0x50, 0x1        	BSET	_flag1,1
                                           _00206_DS_
                                           ;	.line	424; "MC32F7361.c"	if (cur_b > next_b)
0003e2   584a     movar   0x4a             	MOVAR	_cur_b
0003e3   484e     rsubar  0x4e             	RSUBAR	_next_b
0003e4   f187     jbclr   0x187, 0         	JBCLR	PFLAG,0
0003e5   a3eb     goto    0x3eb            	GOTO	_00208_DS_
                                           ;;genSkipc:3291: created from rifx:013B5EFC
                                           ;	.line	426; "MC32F7361.c"	diff_b = cur_b - next_b;
0003e6   584e     movar   0x4e             	MOVAR	_next_b
0003e7   484a     rsubar  0x4a             	RSUBAR	_cur_b
0003e8   560f     movra   0xf              	MOVRA	r0x1025
                                           ;	.line	427; "MC32F7361.c"	DIR_B = 0; // 
0003e9   d450     bclr    0x50, 0x2        	BCLR	_flag1,2
0003ea   a3ef     goto    0x3ef            	GOTO	_00209_DS_
                                           _00208_DS_
                                           ;	.line	431; "MC32F7361.c"	diff_b = next_b - cur_b;
0003eb   584a     movar   0x4a             	MOVAR	_cur_b
0003ec   484e     rsubar  0x4e             	RSUBAR	_next_b
0003ed   560f     movra   0xf              	MOVRA	r0x1025
                                           ;	.line	432; "MC32F7361.c"	DIR_B = 1; // /
0003ee   c450     bset    0x50, 0x2        	BSET	_flag1,2
                                           _00209_DS_
                                           ;	.line	436; "MC32F7361.c"	time_interval_r = __get_gradient_adjust_time(diff_r);
0003ef   5810     movar   0x10             	MOVAR	r0x1027
0003f0   851d     call    0x51d            	CALL	___get_gradient_adjust_time
0003f1   563f     movra   0x3f             	MOVRA	(_time_interval_r + 1)
0003f2   5806     movar   0x6              	MOVAR	STK00
0003f3   563e     movra   0x3e             	MOVRA	_time_interval_r
                                           ;	.line	437; "MC32F7361.c"	time_interval_g = __get_gradient_adjust_time(diff_g);
0003f4   5811     movar   0x11             	MOVAR	r0x1026
0003f5   851d     call    0x51d            	CALL	___get_gradient_adjust_time
0003f6   5641     movra   0x41             	MOVRA	(_time_interval_g + 1)
0003f7   5806     movar   0x6              	MOVAR	STK00
0003f8   5640     movra   0x40             	MOVRA	_time_interval_g
                                           ;	.line	438; "MC32F7361.c"	time_interval_b = __get_gradient_adjust_time(diff_b);
0003f9   580f     movar   0xf              	MOVAR	r0x1025
0003fa   851d     call    0x51d            	CALL	___get_gradient_adjust_time
0003fb   5643     movra   0x43             	MOVRA	(_time_interval_b + 1)
0003fc   5806     movar   0x6              	MOVAR	STK00
0003fd   5642     movra   0x42             	MOVRA	_time_interval_b
                                           ;	.line	447; "MC32F7361.c"	tmp_r = 0; // 
0003fe   7638     clrr    0x38             	CLRR	_tmp_r
0003ff   7639     clrr    0x39             	CLRR	(_tmp_r + 1)
                                           ;	.line	448; "MC32F7361.c"	tmp_g = 0;
000400   763a     clrr    0x3a             	CLRR	_tmp_g
000401   763b     clrr    0x3b             	CLRR	(_tmp_g + 1)
                                           ;	.line	449; "MC32F7361.c"	tmp_b = 0;
000402   763c     clrr    0x3c             	CLRR	_tmp_b
000403   763d     clrr    0x3d             	CLRR	(_tmp_b + 1)
                                           ;	.line	451; "MC32F7361.c"	for (u16 i = 0; i < GRADIENT_TIME; i++)
000404   7610     clrr    0x10             	CLRR	r0x1027
000405   7611     clrr    0x11             	CLRR	r0x1026
                                           ;;unsigned compare: left < lit(0x708=1800), size=2
                                           _00279_DS_
000406   3c07     movai   0x7              	MOVAI	0x07
000407   4811     rsubar  0x11             	RSUBAR	r0x1026
000408   e587     jbset   0x187, 0x2       	JBSET	PFLAG,2
000409   a40c     goto    0x40c            	GOTO	_00452_DS_
00040a   3c08     movai   0x8              	MOVAI	0x08
00040b   4810     rsubar  0x10             	RSUBAR	r0x1027
                                           _00452_DS_
00040c   f187     jbclr   0x187, 0         	JBCLR	PFLAG,0
00040d   a4c2     goto    0x4c2            	GOTO	_00254_DS_
                                           ;;genSkipc:3291: created from rifx:013B5EFC
                                           ;	.line	455; "MC32F7361.c"	if (KEY_2_3_PIN == 0)
00040e   f594     jbclr   0x194, 0x2       	JBCLR	_IOP1bits,2
00040f   a41d     goto    0x41d            	GOTO	_00225_DS_
                                           ;	.line	457; "MC32F7361.c"	delay_ms(10);
000410   3c0a     movai   0xa              	MOVAI	0x0a
000411   5604     movra   0x4              	MOVRA	STK02
000412   3c00     movai   0                	MOVAI	0x00
000413   5605     movra   0x5              	MOVRA	STK01
000414   3c00     movai   0                	MOVAI	0x00
000415   5606     movra   0x6              	MOVRA	STK00
000416   3c00     movai   0                	MOVAI	0x00
000417   8637     call    0x637            	CALL	_delay_ms
                                           ;	.line	458; "MC32F7361.c"	if (KEY_2_3_PIN == 0)
000418   f594     jbclr   0x194, 0x2       	JBCLR	_IOP1bits,2
000419   a441     goto    0x441            	GOTO	_00226_DS_
                                           ;	.line	460; "MC32F7361.c"	right_key_val = RIGHT_KEY_UP;
00041a   3c04     movai   0x4              	MOVAI	0x04
00041b   5647     movra   0x47             	MOVRA	_right_key_val
                                           ;	.line	462; "MC32F7361.c"	return;
00041c   a51c     goto    0x51c            	GOTO	_00283_DS_
                                           _00225_DS_
                                           ;	.line	465; "MC32F7361.c"	else if (0 == KEY_1_1_PIN)
00041d   f390     jbclr   0x190, 0x1       	JBCLR	_IOP0bits,1
00041e   a42c     goto    0x42c            	GOTO	_00222_DS_
                                           ;	.line	467; "MC32F7361.c"	delay_ms(10);
00041f   3c0a     movai   0xa              	MOVAI	0x0a
000420   5604     movra   0x4              	MOVRA	STK02
000421   3c00     movai   0                	MOVAI	0x00
000422   5605     movra   0x5              	MOVRA	STK01
000423   3c00     movai   0                	MOVAI	0x00
000424   5606     movra   0x6              	MOVRA	STK00
000425   3c00     movai   0                	MOVAI	0x00
000426   8637     call    0x637            	CALL	_delay_ms
                                           ;	.line	468; "MC32F7361.c"	if (0 == KEY_1_1_PIN)
000427   f390     jbclr   0x190, 0x1       	JBCLR	_IOP0bits,1
000428   a441     goto    0x441            	GOTO	_00226_DS_
                                           ;	.line	470; "MC32F7361.c"	left_key_val = LEFT_EY_UP;
000429   3c01     movai   0x1              	MOVAI	0x01
00042a   5646     movra   0x46             	MOVRA	_left_key_val
                                           ;	.line	472; "MC32F7361.c"	return;
00042b   a51c     goto    0x51c            	GOTO	_00283_DS_
                                           _00222_DS_
                                           ;	.line	475; "MC32F7361.c"	else if ((0 == KEY_2_2_PIN) && (0 == LIGHT_SENSOR_PIN) &&
00042c   f794     jbclr   0x194, 0x3       	JBCLR	_IOP1bits,3
00042d   a441     goto    0x441            	GOTO	_00226_DS_
00042e   f394     jbclr   0x194, 0x1       	JBCLR	_IOP1bits,1
00042f   a441     goto    0x441            	GOTO	_00226_DS_
                                           ;	.line	476; "MC32F7361.c"	(0 == SWITCH_CHANGE_FLAG))
000430   fc50     jbclr   0x50, 0x6        	JBCLR	_flag1,6
000431   a441     goto    0x441            	GOTO	_00226_DS_
                                           ;	.line	479; "MC32F7361.c"	delay_ms(10);
000432   3c0a     movai   0xa              	MOVAI	0x0a
000433   5604     movra   0x4              	MOVRA	STK02
000434   3c00     movai   0                	MOVAI	0x00
000435   5605     movra   0x5              	MOVRA	STK01
000436   3c00     movai   0                	MOVAI	0x00
000437   5606     movra   0x6              	MOVRA	STK00
000438   3c00     movai   0                	MOVAI	0x00
000439   8637     call    0x637            	CALL	_delay_ms
                                           ;	.line	480; "MC32F7361.c"	if ((0 == KEY_2_2_PIN) && (0 == LIGHT_SENSOR_PIN))
00043a   f794     jbclr   0x194, 0x3       	JBCLR	_IOP1bits,3
00043b   a441     goto    0x441            	GOTO	_00226_DS_
00043c   f394     jbclr   0x194, 0x1       	JBCLR	_IOP1bits,1
00043d   a441     goto    0x441            	GOTO	_00226_DS_
                                           ;	.line	483; "MC32F7361.c"	RGB_ENABLE = 0; // 
00043e   d650     bclr    0x50, 0x3        	BCLR	_flag1,3
                                           ;	.line	484; "MC32F7361.c"	SWITCH_CHANGE_FLAG = 1;
00043f   cc50     bset    0x50, 0x6        	BSET	_flag1,6
                                           ;	.line	485; "MC32F7361.c"	return;
000440   a51c     goto    0x51c            	GOTO	_00283_DS_
                                           _00226_DS_
                                           ;	.line	493; "MC32F7361.c"	tmp_r += 100;
000441   3c64     movai   0x64             	MOVAI	0x64
000442   7e38     addra   0x38             	ADDRA	_tmp_r
000443   f187     jbclr   0x187, 0         	JBCLR	PFLAG,0
000444   6639     incr    0x39             	INCR	(_tmp_r + 1)
                                           ;	.line	494; "MC32F7361.c"	tmp_g += 100;
000445   3c64     movai   0x64             	MOVAI	0x64
000446   7e3a     addra   0x3a             	ADDRA	_tmp_g
000447   f187     jbclr   0x187, 0         	JBCLR	PFLAG,0
000448   663b     incr    0x3b             	INCR	(_tmp_g + 1)
                                           ;	.line	495; "MC32F7361.c"	tmp_b += 100;
000449   3c64     movai   0x64             	MOVAI	0x64
00044a   7e3c     addra   0x3c             	ADDRA	_tmp_b
00044b   f187     jbclr   0x187, 0         	JBCLR	PFLAG,0
00044c   663d     incr    0x3d             	INCR	(_tmp_b + 1)
                                           ;	.line	497; "MC32F7361.c"	if (DIR_R) // 
00044d   e050     jbset   0x50, 0          	JBSET	_flag1,0
00044e   a45f     goto    0x45f            	GOTO	_00234_DS_
                                           ;	.line	500; "MC32F7361.c"	if (tmp_r >= time_interval_r && cur_r < next_r)
00044f   583f     movar   0x3f             	MOVAR	(_time_interval_r + 1)
000450   4839     rsubar  0x39             	RSUBAR	(_tmp_r + 1)
000451   e587     jbset   0x187, 0x2       	JBSET	PFLAG,2
000452   a455     goto    0x455            	GOTO	_00453_DS_
000453   583e     movar   0x3e             	MOVAR	_time_interval_r
000454   4838     rsubar  0x38             	RSUBAR	_tmp_r
                                           _00453_DS_
000455   e187     jbset   0x187, 0         	JBSET	PFLAG,0
000456   a46e     goto    0x46e            	GOTO	_00235_DS_
                                           ;;genSkipc:3291: created from rifx:013B5EFC
000457   584c     movar   0x4c             	MOVAR	_next_r
000458   4848     rsubar  0x48             	RSUBAR	_cur_r
000459   f187     jbclr   0x187, 0         	JBCLR	PFLAG,0
00045a   a46e     goto    0x46e            	GOTO	_00235_DS_
                                           ;;genSkipc:3291: created from rifx:013B5EFC
                                           ;	.line	503; "MC32F7361.c"	tmp_r = 0;
00045b   7638     clrr    0x38             	CLRR	_tmp_r
00045c   7639     clrr    0x39             	CLRR	(_tmp_r + 1)
                                           ;	.line	504; "MC32F7361.c"	cur_r++;
00045d   6648     incr    0x48             	INCR	_cur_r
00045e   a46e     goto    0x46e            	GOTO	_00235_DS_
                                           _00234_DS_
                                           ;	.line	511; "MC32F7361.c"	if (tmp_r >= time_interval_r && cur_r > next_r)
00045f   583f     movar   0x3f             	MOVAR	(_time_interval_r + 1)
000460   4839     rsubar  0x39             	RSUBAR	(_tmp_r + 1)
000461   e587     jbset   0x187, 0x2       	JBSET	PFLAG,2
000462   a465     goto    0x465            	GOTO	_00455_DS_
000463   583e     movar   0x3e             	MOVAR	_time_interval_r
000464   4838     rsubar  0x38             	RSUBAR	_tmp_r
                                           _00455_DS_
000465   e187     jbset   0x187, 0         	JBSET	PFLAG,0
000466   a46e     goto    0x46e            	GOTO	_00235_DS_
                                           ;;genSkipc:3291: created from rifx:013B5EFC
000467   5848     movar   0x48             	MOVAR	_cur_r
000468   484c     rsubar  0x4c             	RSUBAR	_next_r
000469   f187     jbclr   0x187, 0         	JBCLR	PFLAG,0
00046a   a46e     goto    0x46e            	GOTO	_00235_DS_
                                           ;;genSkipc:3291: created from rifx:013B5EFC
                                           ;	.line	514; "MC32F7361.c"	tmp_r = 0;
00046b   7638     clrr    0x38             	CLRR	_tmp_r
00046c   7639     clrr    0x39             	CLRR	(_tmp_r + 1)
                                           ;	.line	515; "MC32F7361.c"	cur_r--;
00046d   6e48     decr    0x48             	DECR	_cur_r
                                           _00235_DS_
                                           ;	.line	519; "MC32F7361.c"	if (DIR_G)
00046e   e250     jbset   0x50, 0x1        	JBSET	_flag1,1
00046f   a480     goto    0x480            	GOTO	_00243_DS_
                                           ;	.line	522; "MC32F7361.c"	if (tmp_g >= time_interval_g && cur_g < next_g)
000470   5841     movar   0x41             	MOVAR	(_time_interval_g + 1)
000471   483b     rsubar  0x3b             	RSUBAR	(_tmp_g + 1)
000472   e587     jbset   0x187, 0x2       	JBSET	PFLAG,2
000473   a476     goto    0x476            	GOTO	_00457_DS_
000474   5840     movar   0x40             	MOVAR	_time_interval_g
000475   483a     rsubar  0x3a             	RSUBAR	_tmp_g
                                           _00457_DS_
000476   e187     jbset   0x187, 0         	JBSET	PFLAG,0
000477   a48f     goto    0x48f            	GOTO	_00244_DS_
                                           ;;genSkipc:3291: created from rifx:013B5EFC
000478   584d     movar   0x4d             	MOVAR	_next_g
000479   4849     rsubar  0x49             	RSUBAR	_cur_g
00047a   f187     jbclr   0x187, 0         	JBCLR	PFLAG,0
00047b   a48f     goto    0x48f            	GOTO	_00244_DS_
                                           ;;genSkipc:3291: created from rifx:013B5EFC
                                           ;	.line	525; "MC32F7361.c"	tmp_g = 0;
00047c   763a     clrr    0x3a             	CLRR	_tmp_g
00047d   763b     clrr    0x3b             	CLRR	(_tmp_g + 1)
                                           ;	.line	526; "MC32F7361.c"	cur_g++;
00047e   6649     incr    0x49             	INCR	_cur_g
00047f   a48f     goto    0x48f            	GOTO	_00244_DS_
                                           _00243_DS_
                                           ;	.line	532; "MC32F7361.c"	if (tmp_g >= time_interval_g && cur_g > next_g)
000480   5841     movar   0x41             	MOVAR	(_time_interval_g + 1)
000481   483b     rsubar  0x3b             	RSUBAR	(_tmp_g + 1)
000482   e587     jbset   0x187, 0x2       	JBSET	PFLAG,2
000483   a486     goto    0x486            	GOTO	_00459_DS_
000484   5840     movar   0x40             	MOVAR	_time_interval_g
000485   483a     rsubar  0x3a             	RSUBAR	_tmp_g
                                           _00459_DS_
000486   e187     jbset   0x187, 0         	JBSET	PFLAG,0
000487   a48f     goto    0x48f            	GOTO	_00244_DS_
                                           ;;genSkipc:3291: created from rifx:013B5EFC
000488   5849     movar   0x49             	MOVAR	_cur_g
000489   484d     rsubar  0x4d             	RSUBAR	_next_g
00048a   f187     jbclr   0x187, 0         	JBCLR	PFLAG,0
00048b   a48f     goto    0x48f            	GOTO	_00244_DS_
                                           ;;genSkipc:3291: created from rifx:013B5EFC
                                           ;	.line	535; "MC32F7361.c"	tmp_g = 0;
00048c   763a     clrr    0x3a             	CLRR	_tmp_g
00048d   763b     clrr    0x3b             	CLRR	(_tmp_g + 1)
                                           ;	.line	536; "MC32F7361.c"	cur_g--;
00048e   6e49     decr    0x49             	DECR	_cur_g
                                           _00244_DS_
                                           ;	.line	540; "MC32F7361.c"	if (DIR_B)
00048f   e450     jbset   0x50, 0x2        	JBSET	_flag1,2
000490   a4a1     goto    0x4a1            	GOTO	_00252_DS_
                                           ;	.line	543; "MC32F7361.c"	if (tmp_b >= time_interval_b && cur_b < next_b)
000491   5843     movar   0x43             	MOVAR	(_time_interval_b + 1)
000492   483d     rsubar  0x3d             	RSUBAR	(_tmp_b + 1)
000493   e587     jbset   0x187, 0x2       	JBSET	PFLAG,2
000494   a497     goto    0x497            	GOTO	_00461_DS_
000495   5842     movar   0x42             	MOVAR	_time_interval_b
000496   483c     rsubar  0x3c             	RSUBAR	_tmp_b
                                           _00461_DS_
000497   e187     jbset   0x187, 0         	JBSET	PFLAG,0
000498   a4b0     goto    0x4b0            	GOTO	_00253_DS_
                                           ;;genSkipc:3291: created from rifx:013B5EFC
000499   584e     movar   0x4e             	MOVAR	_next_b
00049a   484a     rsubar  0x4a             	RSUBAR	_cur_b
00049b   f187     jbclr   0x187, 0         	JBCLR	PFLAG,0
00049c   a4b0     goto    0x4b0            	GOTO	_00253_DS_
                                           ;;genSkipc:3291: created from rifx:013B5EFC
                                           ;	.line	546; "MC32F7361.c"	tmp_b = 0;
00049d   763c     clrr    0x3c             	CLRR	_tmp_b
00049e   763d     clrr    0x3d             	CLRR	(_tmp_b + 1)
                                           ;	.line	547; "MC32F7361.c"	cur_b++;
00049f   664a     incr    0x4a             	INCR	_cur_b
0004a0   a4b0     goto    0x4b0            	GOTO	_00253_DS_
                                           _00252_DS_
                                           ;	.line	553; "MC32F7361.c"	if (tmp_b >= time_interval_b && cur_b > next_b)
0004a1   5843     movar   0x43             	MOVAR	(_time_interval_b + 1)
0004a2   483d     rsubar  0x3d             	RSUBAR	(_tmp_b + 1)
0004a3   e587     jbset   0x187, 0x2       	JBSET	PFLAG,2
0004a4   a4a7     goto    0x4a7            	GOTO	_00463_DS_
0004a5   5842     movar   0x42             	MOVAR	_time_interval_b
0004a6   483c     rsubar  0x3c             	RSUBAR	_tmp_b
                                           _00463_DS_
0004a7   e187     jbset   0x187, 0         	JBSET	PFLAG,0
0004a8   a4b0     goto    0x4b0            	GOTO	_00253_DS_
                                           ;;genSkipc:3291: created from rifx:013B5EFC
0004a9   584a     movar   0x4a             	MOVAR	_cur_b
0004aa   484e     rsubar  0x4e             	RSUBAR	_next_b
0004ab   f187     jbclr   0x187, 0         	JBCLR	PFLAG,0
0004ac   a4b0     goto    0x4b0            	GOTO	_00253_DS_
                                           ;;genSkipc:3291: created from rifx:013B5EFC
                                           ;	.line	556; "MC32F7361.c"	tmp_b = 0;
0004ad   763c     clrr    0x3c             	CLRR	_tmp_b
0004ae   763d     clrr    0x3d             	CLRR	(_tmp_b + 1)
                                           ;	.line	557; "MC32F7361.c"	cur_b--;
0004af   6e4a     decr    0x4a             	DECR	_cur_b
                                           _00253_DS_
                                           ;	.line	561; "MC32F7361.c"	color_set_component_r(cur_r); // 
0004b0   5848     movar   0x48             	MOVAR	_cur_r
0004b1   854a     call    0x54a            	CALL	_color_set_component_r
                                           ;	.line	562; "MC32F7361.c"	color_set_component_g(cur_g); // 
0004b2   5849     movar   0x49             	MOVAR	_cur_g
0004b3   8544     call    0x544            	CALL	_color_set_component_g
                                           ;	.line	563; "MC32F7361.c"	color_set_component_b(cur_b); // 
0004b4   584a     movar   0x4a             	MOVAR	_cur_b
0004b5   853e     call    0x53e            	CALL	_color_set_component_b
                                           ;	.line	564; "MC32F7361.c"	delay_ms(1);                  //
0004b6   3c01     movai   0x1              	MOVAI	0x01
0004b7   5604     movra   0x4              	MOVRA	STK02
0004b8   3c00     movai   0                	MOVAI	0x00
0004b9   5605     movra   0x5              	MOVRA	STK01
0004ba   3c00     movai   0                	MOVAI	0x00
0004bb   5606     movra   0x6              	MOVRA	STK00
0004bc   3c00     movai   0                	MOVAI	0x00
0004bd   8637     call    0x637            	CALL	_delay_ms
                                           ;	.line	451; "MC32F7361.c"	for (u16 i = 0; i < GRADIENT_TIME; i++)
0004be   6610     incr    0x10             	INCR	r0x1027
0004bf   f587     jbclr   0x187, 0x2       	JBCLR	PFLAG,2
0004c0   6611     incr    0x11             	INCR	r0x1026
0004c1   a406     goto    0x406            	GOTO	_00279_DS_
                                           _00254_DS_
                                           ;	.line	575; "MC32F7361.c"	for (i = 0; i < 2000; i++) //  xx ms
0004c2   7636     clrr    0x36             	CLRR	_i
0004c3   7637     clrr    0x37             	CLRR	(_i + 1)
                                           _00281_DS_
                                           ;	.line	577; "MC32F7361.c"	if (KEY_2_3_PIN == 0)
0004c4   f594     jbclr   0x194, 0x2       	JBCLR	_IOP1bits,2
0004c5   a4d3     goto    0x4d3            	GOTO	_00275_DS_
                                           ;	.line	579; "MC32F7361.c"	delay_ms(10);
0004c6   3c0a     movai   0xa              	MOVAI	0x0a
0004c7   5604     movra   0x4              	MOVRA	STK02
0004c8   3c00     movai   0                	MOVAI	0x00
0004c9   5605     movra   0x5              	MOVRA	STK01
0004ca   3c00     movai   0                	MOVAI	0x00
0004cb   5606     movra   0x6              	MOVRA	STK00
0004cc   3c00     movai   0                	MOVAI	0x00
0004cd   8637     call    0x637            	CALL	_delay_ms
                                           ;	.line	580; "MC32F7361.c"	if (KEY_2_3_PIN == 0)
0004ce   f594     jbclr   0x194, 0x2       	JBCLR	_IOP1bits,2
0004cf   a509     goto    0x509            	GOTO	_00276_DS_
                                           ;	.line	582; "MC32F7361.c"	right_key_val = RIGHT_KEY_UP;
0004d0   3c04     movai   0x4              	MOVAI	0x04
0004d1   5647     movra   0x47             	MOVRA	_right_key_val
                                           ;	.line	584; "MC32F7361.c"	return;
0004d2   a51c     goto    0x51c            	GOTO	_00283_DS_
                                           _00275_DS_
                                           ;	.line	587; "MC32F7361.c"	else if (0 == KEY_1_1_PIN)
0004d3   f390     jbclr   0x190, 0x1       	JBCLR	_IOP0bits,1
0004d4   a4e2     goto    0x4e2            	GOTO	_00272_DS_
                                           ;	.line	589; "MC32F7361.c"	delay_ms(10);
0004d5   3c0a     movai   0xa              	MOVAI	0x0a
0004d6   5604     movra   0x4              	MOVRA	STK02
0004d7   3c00     movai   0                	MOVAI	0x00
0004d8   5605     movra   0x5              	MOVRA	STK01
0004d9   3c00     movai   0                	MOVAI	0x00
0004da   5606     movra   0x6              	MOVRA	STK00
0004db   3c00     movai   0                	MOVAI	0x00
0004dc   8637     call    0x637            	CALL	_delay_ms
                                           ;	.line	590; "MC32F7361.c"	if (0 == KEY_1_1_PIN)
0004dd   f390     jbclr   0x190, 0x1       	JBCLR	_IOP0bits,1
0004de   a509     goto    0x509            	GOTO	_00276_DS_
                                           ;	.line	592; "MC32F7361.c"	left_key_val = LEFT_EY_UP;
0004df   3c01     movai   0x1              	MOVAI	0x01
0004e0   5646     movra   0x46             	MOVRA	_left_key_val
                                           ;	.line	594; "MC32F7361.c"	return;
0004e1   a51c     goto    0x51c            	GOTO	_00283_DS_
                                           _00272_DS_
                                           ;	.line	597; "MC32F7361.c"	else if ((0 == KEY_2_2_PIN) && (0 == LIGHT_SENSOR_PIN) &&
0004e2   f794     jbclr   0x194, 0x3       	JBCLR	_IOP1bits,3
0004e3   a4f7     goto    0x4f7            	GOTO	_00267_DS_
0004e4   f394     jbclr   0x194, 0x1       	JBCLR	_IOP1bits,1
0004e5   a4f7     goto    0x4f7            	GOTO	_00267_DS_
                                           ;	.line	598; "MC32F7361.c"	(0 == SWITCH_CHANGE_FLAG))
0004e6   fc50     jbclr   0x50, 0x6        	JBCLR	_flag1,6
0004e7   a4f7     goto    0x4f7            	GOTO	_00267_DS_
                                           ;	.line	600; "MC32F7361.c"	delay_ms(10);
0004e8   3c0a     movai   0xa              	MOVAI	0x0a
0004e9   5604     movra   0x4              	MOVRA	STK02
0004ea   3c00     movai   0                	MOVAI	0x00
0004eb   5605     movra   0x5              	MOVRA	STK01
0004ec   3c00     movai   0                	MOVAI	0x00
0004ed   5606     movra   0x6              	MOVRA	STK00
0004ee   3c00     movai   0                	MOVAI	0x00
0004ef   8637     call    0x637            	CALL	_delay_ms
                                           ;	.line	601; "MC32F7361.c"	if ((0 == KEY_2_2_PIN) && (0 == LIGHT_SENSOR_PIN))
0004f0   f794     jbclr   0x194, 0x3       	JBCLR	_IOP1bits,3
0004f1   a509     goto    0x509            	GOTO	_00276_DS_
0004f2   f394     jbclr   0x194, 0x1       	JBCLR	_IOP1bits,1
0004f3   a509     goto    0x509            	GOTO	_00276_DS_
                                           ;	.line	604; "MC32F7361.c"	RGB_ENABLE = 0; // 
0004f4   d650     bclr    0x50, 0x3        	BCLR	_flag1,3
                                           ;	.line	605; "MC32F7361.c"	SWITCH_CHANGE_FLAG = 1;
0004f5   cc50     bset    0x50, 0x6        	BSET	_flag1,6
                                           ;	.line	606; "MC32F7361.c"	return;
0004f6   a51c     goto    0x51c            	GOTO	_00283_DS_
                                           _00267_DS_
                                           ;	.line	610; "MC32F7361.c"	else if (0 == KEY_1_3_PIN)
0004f7   f190     jbclr   0x190, 0         	JBCLR	_IOP0bits,0
0004f8   a509     goto    0x509            	GOTO	_00276_DS_
                                           ;	.line	612; "MC32F7361.c"	delay_ms(10);
0004f9   3c0a     movai   0xa              	MOVAI	0x0a
0004fa   5604     movra   0x4              	MOVRA	STK02
0004fb   3c00     movai   0                	MOVAI	0x00
0004fc   5605     movra   0x5              	MOVRA	STK01
0004fd   3c00     movai   0                	MOVAI	0x00
0004fe   5606     movra   0x6              	MOVRA	STK00
0004ff   3c00     movai   0                	MOVAI	0x00
000500   8637     call    0x637            	CALL	_delay_ms
                                           ;	.line	613; "MC32F7361.c"	if (0 == KEY_1_3_PIN)
000501   f190     jbclr   0x190, 0         	JBCLR	_IOP0bits,0
000502   a509     goto    0x509            	GOTO	_00276_DS_
                                           ;	.line	615; "MC32F7361.c"	left_key_val = KEY_1_3_PIN;
000503   7610     clrr    0x10             	CLRR	r0x1027
000504   f190     jbclr   0x190, 0         	JBCLR	_IOP0bits,0
000505   6610     incr    0x10             	INCR	r0x1027
000506   5810     movar   0x10             	MOVAR	r0x1027
000507   5646     movra   0x46             	MOVRA	_left_key_val
                                           ;	.line	616; "MC32F7361.c"	return;
000508   a51c     goto    0x51c            	GOTO	_00283_DS_
                                           _00276_DS_
                                           ;	.line	620; "MC32F7361.c"	delay_ms(1);
000509   3c01     movai   0x1              	MOVAI	0x01
00050a   5604     movra   0x4              	MOVRA	STK02
00050b   3c00     movai   0                	MOVAI	0x00
00050c   5605     movra   0x5              	MOVRA	STK01
00050d   3c00     movai   0                	MOVAI	0x00
00050e   5606     movra   0x6              	MOVRA	STK00
00050f   3c00     movai   0                	MOVAI	0x00
000510   8637     call    0x637            	CALL	_delay_ms
                                           ;	.line	575; "MC32F7361.c"	for (i = 0; i < 2000; i++) //  xx ms
000511   6636     incr    0x36             	INCR	_i
000512   f587     jbclr   0x187, 0x2       	JBCLR	PFLAG,2
000513   6637     incr    0x37             	INCR	(_i + 1)
                                           ;;unsigned compare: left < lit(0x7D0=2000), size=2
000514   3c07     movai   0x7              	MOVAI	0x07
000515   4837     rsubar  0x37             	RSUBAR	(_i + 1)
000516   e587     jbset   0x187, 0x2       	JBSET	PFLAG,2
000517   a51a     goto    0x51a            	GOTO	_00465_DS_
000518   3cd0     movai   0xd0             	MOVAI	0xd0
000519   4836     rsubar  0x36             	RSUBAR	_i
                                           _00465_DS_
00051a   e187     jbset   0x187, 0         	JBSET	PFLAG,0
00051b   a4c4     goto    0x4c4            	GOTO	_00281_DS_
                                           ;;genSkipc:3291: created from rifx:013B5EFC
                                           _00283_DS_
                                           ;	.line	622; "MC32F7361.c"	}
00051c   000c     return                   	RETURN	
                                           ; exit point of ___color_gradient
                                           
                                           ;***
                                           ;  pBlock Stats: dbName = C
                                           ;***
                                           ;entry:  ___get_gradient_adjust_time	;Function start
                                           ; 2 exit points
                                           ;has an exit
                                           ;functions called:
                                           ;   __divulong
                                           ;   __divulong
                                           ;13 compiler assigned registers:
                                           ;   r0x101D
                                           ;   r0x101E
                                           ;   r0x101F
                                           ;   r0x1020
                                           ;   r0x1021
                                           ;   STK06
                                           ;   STK05
                                           ;   STK04
                                           ;   STK03
                                           ;   STK02
                                           ;   STK01
                                           ;   STK00
                                           ;   r0x1022
                                           ;; Starting pCode block
                                           ___get_gradient_adjust_time	;Function start
                                           ; 2 exit points
                                           ;	.line	385; "MC32F7361.c"	u16 __get_gradient_adjust_time(u8 color_component)
00051d   560a     movra   0xa              	MOVRA	r0x101D
                                           ;;115	MOVAR	r0x101D
                                           ;	.line	387; "MC32F7361.c"	return (u32)GRADIENT_TIME * 100 / color_component;
00051e   7608     clrr    0x8              	CLRR	r0x101F
00051f   7607     clrr    0x7              	CLRR	r0x1020
000520   760b     clrr    0xb              	CLRR	r0x1021
                                           ;;114	MOVAR	r0x101E
000521   580a     movar   0xa              	MOVAR	r0x101D
000522   5609     movra   0x9              	MOVRA	r0x101E
000523   5600     movra   0                	MOVRA	STK06
000524   3c00     movai   0                	MOVAI	0x00
000525   5601     movra   0x1              	MOVRA	STK05
000526   3c00     movai   0                	MOVAI	0x00
000527   5602     movra   0x2              	MOVRA	STK04
000528   3c00     movai   0                	MOVAI	0x00
000529   5603     movra   0x3              	MOVRA	STK03
00052a   3c20     movai   0x20             	MOVAI	0x20
00052b   5604     movra   0x4              	MOVRA	STK02
00052c   3cbf     movai   0xbf             	MOVAI	0xbf
00052d   5605     movra   0x5              	MOVRA	STK01
00052e   3c02     movai   0x2              	MOVAI	0x02
00052f   5606     movra   0x6              	MOVRA	STK00
000530   3c00     movai   0                	MOVAI	0x00
000531   8663     call    0x663            	CALL	__divulong
000532   5607     movra   0x7              	MOVRA	r0x1020
000533   5806     movar   0x6              	MOVAR	STK00
000534   5608     movra   0x8              	MOVRA	r0x101F
000535   5805     movar   0x5              	MOVAR	STK01
000536   5609     movra   0x9              	MOVRA	r0x101E
000537   5804     movar   0x4              	MOVAR	STK02
000538   560b     movra   0xb              	MOVRA	r0x1021
000539   560a     movra   0xa              	MOVRA	r0x101D
                                           ;;113	MOVAR	r0x101D
                                           ;;101	MOVAR	r0x101E
                                           ;;99	MOVRA	r0x1022
00053a   580b     movar   0xb              	MOVAR	r0x1021
00053b   5606     movra   0x6              	MOVRA	STK00
                                           ;;100	MOVAR	r0x1022
00053c   5809     movar   0x9              	MOVAR	r0x101E
                                           ;	.line	388; "MC32F7361.c"	}
00053d   000c     return                   	RETURN	
                                           ; exit point of ___get_gradient_adjust_time
                                           
                                           ;***
                                           ;  pBlock Stats: dbName = C
                                           ;***
                                           ;entry:  _color_set_component_b	;Function start
                                           ; 2 exit points
                                           ;has an exit
                                           ;functions called:
                                           ;   _pwm_set_duty
                                           ;   _pwm_set_duty
                                           ;2 compiler assigned registers:
                                           ;   r0x101F
                                           ;   STK00
                                           ;; Starting pCode block
                                           _color_set_component_b	;Function start
                                           ; 2 exit points
                                           ;	.line	378; "MC32F7361.c"	void color_set_component_b(const u8 component_b_val)
00053e   5608     movra   0x8              	MOVRA	r0x101F
                                           ;	.line	380; "MC32F7361.c"	pwm_set_duty(0, component_b_val); // 
00053f   5808     movar   0x8              	MOVAR	r0x101F
000540   5606     movra   0x6              	MOVRA	STK00
000541   3c00     movai   0                	MOVAI	0x00
000542   8582     call    0x582            	CALL	_pwm_set_duty
                                           ;	.line	381; "MC32F7361.c"	}
000543   000c     return                   	RETURN	
                                           ; exit point of _color_set_component_b
                                           
                                           ;***
                                           ;  pBlock Stats: dbName = C
                                           ;***
                                           ;entry:  _color_set_component_g	;Function start
                                           ; 2 exit points
                                           ;has an exit
                                           ;functions called:
                                           ;   _pwm_set_duty
                                           ;   _pwm_set_duty
                                           ;2 compiler assigned registers:
                                           ;   r0x101F
                                           ;   STK00
                                           ;; Starting pCode block
                                           _color_set_component_g	;Function start
                                           ; 2 exit points
                                           ;	.line	372; "MC32F7361.c"	void color_set_component_g(const u8 component_g_val)
000544   5608     movra   0x8              	MOVRA	r0x101F
                                           ;	.line	374; "MC32F7361.c"	pwm_set_duty(1, component_g_val); // 
000545   5808     movar   0x8              	MOVAR	r0x101F
000546   5606     movra   0x6              	MOVRA	STK00
000547   3c01     movai   0x1              	MOVAI	0x01
000548   8582     call    0x582            	CALL	_pwm_set_duty
                                           ;	.line	375; "MC32F7361.c"	}
000549   000c     return                   	RETURN	
                                           ; exit point of _color_set_component_g
                                           
                                           ;***
                                           ;  pBlock Stats: dbName = C
                                           ;***
                                           ;entry:  _color_set_component_r	;Function start
                                           ; 2 exit points
                                           ;has an exit
                                           ;functions called:
                                           ;   _pwm_set_duty
                                           ;   _pwm_set_duty
                                           ;2 compiler assigned registers:
                                           ;   r0x101F
                                           ;   STK00
                                           ;; Starting pCode block
                                           _color_set_component_r	;Function start
                                           ; 2 exit points
                                           ;	.line	366; "MC32F7361.c"	void color_set_component_r(const u8 component_r_val)
00054a   5608     movra   0x8              	MOVRA	r0x101F
                                           ;	.line	368; "MC32F7361.c"	pwm_set_duty(2, component_r_val); // 
00054b   5808     movar   0x8              	MOVAR	r0x101F
00054c   5606     movra   0x6              	MOVRA	STK00
00054d   3c02     movai   0x2              	MOVAI	0x02
00054e   8582     call    0x582            	CALL	_pwm_set_duty
                                           ;	.line	369; "MC32F7361.c"	}
00054f   000c     return                   	RETURN	
                                           ; exit point of _color_set_component_r
                                           
                                           ;***
                                           ;  pBlock Stats: dbName = C
                                           ;***
                                           ;entry:  _color_show	;Function start
                                           ; 2 exit points
                                           ;has an exit
                                           ;functions called:
                                           ;   __gptrget1
                                           ;   __gptrget1
                                           ;   __gptrget1
                                           ;   _color_set_component_r
                                           ;   _color_set_component_g
                                           ;   _color_set_component_b
                                           ;   __gptrget1
                                           ;   __gptrget1
                                           ;   __gptrget1
                                           ;   _color_set_component_r
                                           ;   _color_set_component_g
                                           ;   _color_set_component_b
                                           ;8 compiler assigned registers:
                                           ;   r0x1020
                                           ;   STK00
                                           ;   r0x1021
                                           ;   STK01
                                           ;   r0x1022
                                           ;   r0x1023
                                           ;   r0x1024
                                           ;   r0x1025
                                           ;; Starting pCode block
                                           _color_show	;Function start
                                           ; 2 exit points
                                           ;	.line	354; "MC32F7361.c"	void color_show(u8 *rgb_val)
000550   5607     movra   0x7              	MOVRA	r0x1020
000551   5806     movar   0x6              	MOVAR	STK00
000552   560b     movra   0xb              	MOVRA	r0x1021
000553   5805     movar   0x5              	MOVAR	STK01
000554   560c     movra   0xc              	MOVRA	r0x1022
                                           ;	.line	356; "MC32F7361.c"	cur_r = rgb_val[0];
000555   580c     movar   0xc              	MOVAR	r0x1022
000556   5605     movra   0x5              	MOVRA	STK01
000557   580b     movar   0xb              	MOVAR	r0x1021
000558   5606     movra   0x6              	MOVRA	STK00
000559   5807     movar   0x7              	MOVAR	r0x1020
00055a   8710     call    0x710            	CALL	__gptrget1
00055b   5648     movra   0x48             	MOVRA	_cur_r
                                           ;	.line	357; "MC32F7361.c"	cur_g = rgb_val[1];
00055c   3c01     movai   0x1              	MOVAI	0x01
00055d   7c0c     addar   0xc              	ADDAR	r0x1022
00055e   560d     movra   0xd              	MOVRA	r0x1023
00055f   760e     clrr    0xe              	CLRR	r0x1024
000560   520e     rlr     0xe              	RLR	r0x1024
000561   580b     movar   0xb              	MOVAR	r0x1021
000562   7e0e     addra   0xe              	ADDRA	r0x1024
000563   760f     clrr    0xf              	CLRR	r0x1025
000564   520f     rlr     0xf              	RLR	r0x1025
000565   5807     movar   0x7              	MOVAR	r0x1020
000566   7e0f     addra   0xf              	ADDRA	r0x1025
000567   580d     movar   0xd              	MOVAR	r0x1023
000568   5605     movra   0x5              	MOVRA	STK01
000569   580e     movar   0xe              	MOVAR	r0x1024
00056a   5606     movra   0x6              	MOVRA	STK00
00056b   580f     movar   0xf              	MOVAR	r0x1025
00056c   8710     call    0x710            	CALL	__gptrget1
00056d   5649     movra   0x49             	MOVRA	_cur_g
                                           ;	.line	358; "MC32F7361.c"	cur_b = rgb_val[2];
00056e   3c02     movai   0x2              	MOVAI	0x02
00056f   7e0c     addra   0xc              	ADDRA	r0x1022
000570   f187     jbclr   0x187, 0         	JBCLR	PFLAG,0
000571   660b     incr    0xb              	INCR	r0x1021
000572   f587     jbclr   0x187, 0x2       	JBCLR	PFLAG,2
000573   6607     incr    0x7              	INCR	r0x1020
000574   580c     movar   0xc              	MOVAR	r0x1022
000575   5605     movra   0x5              	MOVRA	STK01
000576   580b     movar   0xb              	MOVAR	r0x1021
000577   5606     movra   0x6              	MOVRA	STK00
000578   5807     movar   0x7              	MOVAR	r0x1020
000579   8710     call    0x710            	CALL	__gptrget1
00057a   564a     movra   0x4a             	MOVRA	_cur_b
                                           ;	.line	360; "MC32F7361.c"	color_set_component_r(cur_r); // 
00057b   5848     movar   0x48             	MOVAR	_cur_r
00057c   854a     call    0x54a            	CALL	_color_set_component_r
                                           ;	.line	361; "MC32F7361.c"	color_set_component_g(cur_g); // 
00057d   5849     movar   0x49             	MOVAR	_cur_g
00057e   8544     call    0x544            	CALL	_color_set_component_g
                                           ;	.line	362; "MC32F7361.c"	color_set_component_b(cur_b); // 
00057f   584a     movar   0x4a             	MOVAR	_cur_b
000580   853e     call    0x53e            	CALL	_color_set_component_b
                                           ;	.line	363; "MC32F7361.c"	}
000581   000c     return                   	RETURN	
                                           ; exit point of _color_show
                                           
                                           ;***
                                           ;  pBlock Stats: dbName = C
                                           ;***
                                           ;entry:  _pwm_set_duty	;Function start
                                           ; 2 exit points
                                           ;has an exit
                                           ;3 compiler assigned registers:
                                           ;   r0x101D
                                           ;   STK00
                                           ;   r0x101E
                                           ;; Starting pCode block
                                           _pwm_set_duty	;Function start
                                           ; 2 exit points
                                           ;	.line	326; "MC32F7361.c"	void pwm_set_duty(u8 pwm_x, const u8 duty)
000582   560a     movra   0xa              	MOVRA	r0x101D
000583   5806     movar   0x6              	MOVAR	STK00
000584   5609     movra   0x9              	MOVRA	r0x101E
                                           ;;swapping arguments (AOP_TYPEs 1/2)
                                           ;;unsigned compare: left >= lit(0x3=3), size=1
                                           ;	.line	339; "MC32F7361.c"	switch (pwm_x)
000585   3c03     movai   0x3              	MOVAI	0x03
000586   480a     rsubar  0xa              	RSUBAR	r0x101D
000587   f187     jbclr   0x187, 0         	JBCLR	PFLAG,0
000588   a596     goto    0x596            	GOTO	_00176_DS_
                                           ;;genSkipc:3291: created from rifx:013B5EFC
000589   580a     movar   0xa              	MOVAR	r0x101D
00058a   7f86     addra   0x186            	ADDRA	PCL
00058b   a58e     goto    0x58e            	GOTO	_00172_DS_
00058c   a591     goto    0x591            	GOTO	_00173_DS_
00058d   a594     goto    0x594            	GOTO	_00174_DS_
                                           _00172_DS_
                                           ;	.line	342; "MC32F7361.c"	T0DATA = duty; // 
00058e   5809     movar   0x9              	MOVAR	r0x101E
00058f   579b     movra   0x19b            	MOVRA	_T0DATA
                                           ;	.line	343; "MC32F7361.c"	break;
000590   a596     goto    0x596            	GOTO	_00176_DS_
                                           _00173_DS_
                                           ;	.line	345; "MC32F7361.c"	T1DATA = duty;
000591   5809     movar   0x9              	MOVAR	r0x101E
000592   579f     movra   0x19f            	MOVRA	_T1DATA
                                           ;	.line	346; "MC32F7361.c"	break;
000593   a596     goto    0x596            	GOTO	_00176_DS_
                                           _00174_DS_
                                           ;	.line	348; "MC32F7361.c"	T2DATA = duty;
000594   5809     movar   0x9              	MOVAR	r0x101E
000595   57a3     movra   0x1a3            	MOVRA	_T2DATA
                                           _00176_DS_
                                           ;	.line	351; "MC32F7361.c"	}
000596   000c     return                   	RETURN	
                                           ; exit point of _pwm_set_duty
                                           
                                           ;***
                                           ;  pBlock Stats: dbName = C
                                           ;***
                                           ;entry:  _timer2_pwm_config	;Function start
                                           ; 2 exit points
                                           ;has an exit
                                           ;; Starting pCode block
                                           _timer2_pwm_config	;Function start
                                           ; 2 exit points
                                           ;	.line	296; "MC32F7361.c"	T2CR |= 0x01 << 6; //  PWM2 
000597   cda0     bset    0x1a0, 0x6       	BSET	_T2CR,6
                                           ;	.line	297; "MC32F7361.c"	T2CNT = 255 - 1;   // T2
000598   3cfe     movai   0xfe             	MOVAI	0xfe
000599   57a1     movra   0x1a1            	MOVRA	_T2CNT
                                           ;	.line	298; "MC32F7361.c"	T2LOAD = 255 - 1;  // T2
00059a   3cfe     movai   0xfe             	MOVAI	0xfe
00059b   57a2     movra   0x1a2            	MOVRA	_T2LOAD
                                           ;	.line	304; "MC32F7361.c"	T2DATA = 0;
00059c   77a3     clrr    0x1a3            	CLRR	_T2DATA
                                           ;	.line	308; "MC32F7361.c"	T2EN = 1; // T2
00059d   cfa0     bset    0x1a0, 0x7       	BSET	_T2CRbits,7
                                           ;	.line	310; "MC32F7361.c"	}
00059e   000c     return                   	RETURN	
                                           ; exit point of _timer2_pwm_config
                                           
                                           ;***
                                           ;  pBlock Stats: dbName = C
                                           ;***
                                           ;entry:  _timer1_pwm_config	;Function start
                                           ; 2 exit points
                                           ;has an exit
                                           ;; Starting pCode block
                                           _timer1_pwm_config	;Function start
                                           ; 2 exit points
                                           ;	.line	273; "MC32F7361.c"	T1CR |= 0x01 << 6; //  PWM 
00059f   cd9c     bset    0x19c, 0x6       	BSET	_T1CR,6
                                           ;	.line	274; "MC32F7361.c"	T1CNT = 255 - 1;
0005a0   3cfe     movai   0xfe             	MOVAI	0xfe
0005a1   579d     movra   0x19d            	MOVRA	_T1CNT
                                           ;	.line	275; "MC32F7361.c"	T1LOAD = 255 - 1; //
0005a2   3cfe     movai   0xfe             	MOVAI	0xfe
0005a3   579e     movra   0x19e            	MOVRA	_T1LOAD
                                           ;	.line	281; "MC32F7361.c"	T1DATA = 0;
0005a4   779f     clrr    0x19f            	CLRR	_T1DATA
                                           ;	.line	283; "MC32F7361.c"	PWMCR1 &= ~(0x01 << 1); // PWM1
0005a5   d3ad     bclr    0x1ad, 0x1       	BCLR	_PWMCR1,1
                                           ;	.line	284; "MC32F7361.c"	T1EN = 1;
0005a6   cf9c     bset    0x19c, 0x7       	BSET	_T1CRbits,7
                                           ;	.line	286; "MC32F7361.c"	}
0005a7   000c     return                   	RETURN	
                                           ; exit point of _timer1_pwm_config
                                           
                                           ;***
                                           ;  pBlock Stats: dbName = C
                                           ;***
                                           ;entry:  _timer0_pwm_config	;Function start
                                           ; 2 exit points
                                           ;has an exit
                                           ;; Starting pCode block
                                           _timer0_pwm_config	;Function start
                                           ; 2 exit points
                                           ;	.line	248; "MC32F7361.c"	T0CR |= 0x01 << 6; //  PWM0 
0005a8   cd98     bset    0x198, 0x6       	BSET	_T0CR,6
                                           ;	.line	249; "MC32F7361.c"	T0CNT = 255 - 1;
0005a9   3cfe     movai   0xfe             	MOVAI	0xfe
0005aa   5799     movra   0x199            	MOVRA	_T0CNT
                                           ;	.line	250; "MC32F7361.c"	T0LOAD = 255 - 1; //
0005ab   3cfe     movai   0xfe             	MOVAI	0xfe
0005ac   579a     movra   0x19a            	MOVRA	_T0LOAD
                                           ;	.line	256; "MC32F7361.c"	T0DATA = 0;
0005ad   779b     clrr    0x19b            	CLRR	_T0DATA
                                           ;	.line	258; "MC32F7361.c"	PWMCR0 &= ~(0x01 << 4); // PWM0
0005ae   d9ac     bclr    0x1ac, 0x4       	BCLR	_PWMCR0,4
                                           ;	.line	259; "MC32F7361.c"	PWMCR1 &= ~(0x01 << 0); // PWM0
0005af   d1ad     bclr    0x1ad, 0         	BCLR	_PWMCR1,0
                                           ;	.line	260; "MC32F7361.c"	PWMCR3 &= ~(0x01 << 2); // PWM0  PWM0 O0P16
0005b0   d5bd     bclr    0x1bd, 0x2       	BCLR	_PWMCR3,2
                                           ;	.line	261; "MC32F7361.c"	T0EN = 1;
0005b1   cf98     bset    0x198, 0x7       	BSET	_T0CRbits,7
                                           ;	.line	263; "MC32F7361.c"	}
0005b2   000c     return                   	RETURN	
                                           ; exit point of _timer0_pwm_config
                                           
                                           ;***
                                           ;  pBlock Stats: dbName = C
                                           ;***
                                           ;entry:  _key_scan	;Function start
                                           ; 2 exit points
                                           ;has an exit
                                           ;functions called:
                                           ;   _delay_ms
                                           ;   _delay_ms
                                           ;   _delay_ms
                                           ;   _delay_ms
                                           ;   _delay_ms
                                           ;   _delay_ms
                                           ;   _delay_ms
                                           ;   _delay_ms
                                           ;   _delay_ms
                                           ;   _delay_ms
                                           ;   _delay_ms
                                           ;   _delay_ms
                                           ;3 compiler assigned registers:
                                           ;   STK02
                                           ;   STK01
                                           ;   STK00
                                           ;; Starting pCode block
                                           _key_scan	;Function start
                                           ; 2 exit points
                                           ;	.line	182; "MC32F7361.c"	if (KEY_1_1_PIN == 0)
0005b3   f390     jbclr   0x190, 0x1       	JBCLR	_IOP0bits,1
0005b4   a5c2     goto    0x5c2            	GOTO	_00139_DS_
                                           ;	.line	185; "MC32F7361.c"	delay_ms(10);
0005b5   3c0a     movai   0xa              	MOVAI	0x0a
0005b6   5604     movra   0x4              	MOVRA	STK02
0005b7   3c00     movai   0                	MOVAI	0x00
0005b8   5605     movra   0x5              	MOVRA	STK01
0005b9   3c00     movai   0                	MOVAI	0x00
0005ba   5606     movra   0x6              	MOVRA	STK00
0005bb   3c00     movai   0                	MOVAI	0x00
0005bc   8637     call    0x637            	CALL	_delay_ms
                                           ;	.line	186; "MC32F7361.c"	if (KEY_1_1_PIN == 0)
0005bd   f390     jbclr   0x190, 0x1       	JBCLR	_IOP0bits,1
0005be   a5df     goto    0x5df            	GOTO	_00140_DS_
                                           ;	.line	188; "MC32F7361.c"	left_key_val = LEFT_EY_UP;
0005bf   3c01     movai   0x1              	MOVAI	0x01
0005c0   5646     movra   0x46             	MOVRA	_left_key_val
0005c1   a5df     goto    0x5df            	GOTO	_00140_DS_
                                           _00139_DS_
                                           ;	.line	191; "MC32F7361.c"	else if (KEY_1_2_PIN == 0)
0005c2   f590     jbclr   0x190, 0x2       	JBCLR	_IOP0bits,2
0005c3   a5d1     goto    0x5d1            	GOTO	_00136_DS_
                                           ;	.line	194; "MC32F7361.c"	delay_ms(10);
0005c4   3c0a     movai   0xa              	MOVAI	0x0a
0005c5   5604     movra   0x4              	MOVRA	STK02
0005c6   3c00     movai   0                	MOVAI	0x00
0005c7   5605     movra   0x5              	MOVRA	STK01
0005c8   3c00     movai   0                	MOVAI	0x00
0005c9   5606     movra   0x6              	MOVRA	STK00
0005ca   3c00     movai   0                	MOVAI	0x00
0005cb   8637     call    0x637            	CALL	_delay_ms
                                           ;	.line	195; "MC32F7361.c"	if (KEY_1_2_PIN == 0)
0005cc   f590     jbclr   0x190, 0x2       	JBCLR	_IOP0bits,2
0005cd   a5df     goto    0x5df            	GOTO	_00140_DS_
                                           ;	.line	197; "MC32F7361.c"	left_key_val = LEFT_KEY_MID;
0005ce   3c02     movai   0x2              	MOVAI	0x02
0005cf   5646     movra   0x46             	MOVRA	_left_key_val
0005d0   a5df     goto    0x5df            	GOTO	_00140_DS_
                                           _00136_DS_
                                           ;	.line	200; "MC32F7361.c"	else if (KEY_1_3_PIN == 0)
0005d1   f190     jbclr   0x190, 0         	JBCLR	_IOP0bits,0
0005d2   a5df     goto    0x5df            	GOTO	_00140_DS_
                                           ;	.line	203; "MC32F7361.c"	delay_ms(10);
0005d3   3c0a     movai   0xa              	MOVAI	0x0a
0005d4   5604     movra   0x4              	MOVRA	STK02
0005d5   3c00     movai   0                	MOVAI	0x00
0005d6   5605     movra   0x5              	MOVRA	STK01
0005d7   3c00     movai   0                	MOVAI	0x00
0005d8   5606     movra   0x6              	MOVRA	STK00
0005d9   3c00     movai   0                	MOVAI	0x00
0005da   8637     call    0x637            	CALL	_delay_ms
                                           ;	.line	204; "MC32F7361.c"	if (KEY_1_3_PIN == 0)
0005db   f190     jbclr   0x190, 0         	JBCLR	_IOP0bits,0
0005dc   a5df     goto    0x5df            	GOTO	_00140_DS_
                                           ;	.line	206; "MC32F7361.c"	left_key_val = LEFT_KEY_BOTTOM;
0005dd   3c03     movai   0x3              	MOVAI	0x03
0005de   5646     movra   0x46             	MOVRA	_left_key_val
                                           _00140_DS_
                                           ;	.line	211; "MC32F7361.c"	if (KEY_2_1_PIN == 0)
0005df   f994     jbclr   0x194, 0x4       	JBCLR	_IOP1bits,4
0005e0   a5ee     goto    0x5ee            	GOTO	_00153_DS_
                                           ;	.line	214; "MC32F7361.c"	delay_ms(10);
0005e1   3c0a     movai   0xa              	MOVAI	0x0a
0005e2   5604     movra   0x4              	MOVRA	STK02
0005e3   3c00     movai   0                	MOVAI	0x00
0005e4   5605     movra   0x5              	MOVRA	STK01
0005e5   3c00     movai   0                	MOVAI	0x00
0005e6   5606     movra   0x6              	MOVRA	STK00
0005e7   3c00     movai   0                	MOVAI	0x00
0005e8   8637     call    0x637            	CALL	_delay_ms
                                           ;	.line	215; "MC32F7361.c"	if (KEY_2_1_PIN == 0)
0005e9   f994     jbclr   0x194, 0x4       	JBCLR	_IOP1bits,4
0005ea   a60b     goto    0x60b            	GOTO	_00155_DS_
                                           ;	.line	217; "MC32F7361.c"	right_key_val = RIGHT_KEY_BOTTOM;
0005eb   3c06     movai   0x6              	MOVAI	0x06
0005ec   5647     movra   0x47             	MOVRA	_right_key_val
0005ed   a60b     goto    0x60b            	GOTO	_00155_DS_
                                           _00153_DS_
                                           ;	.line	220; "MC32F7361.c"	else if (KEY_2_2_PIN == 0)
0005ee   f794     jbclr   0x194, 0x3       	JBCLR	_IOP1bits,3
0005ef   a5fd     goto    0x5fd            	GOTO	_00150_DS_
                                           ;	.line	223; "MC32F7361.c"	delay_ms(10);
0005f0   3c0a     movai   0xa              	MOVAI	0x0a
0005f1   5604     movra   0x4              	MOVRA	STK02
0005f2   3c00     movai   0                	MOVAI	0x00
0005f3   5605     movra   0x5              	MOVRA	STK01
0005f4   3c00     movai   0                	MOVAI	0x00
0005f5   5606     movra   0x6              	MOVRA	STK00
0005f6   3c00     movai   0                	MOVAI	0x00
0005f7   8637     call    0x637            	CALL	_delay_ms
                                           ;	.line	224; "MC32F7361.c"	if (KEY_2_2_PIN == 0)
0005f8   f794     jbclr   0x194, 0x3       	JBCLR	_IOP1bits,3
0005f9   a60b     goto    0x60b            	GOTO	_00155_DS_
                                           ;	.line	226; "MC32F7361.c"	right_key_val = RIGHT_KEY_MID;
0005fa   3c05     movai   0x5              	MOVAI	0x05
0005fb   5647     movra   0x47             	MOVRA	_right_key_val
0005fc   a60b     goto    0x60b            	GOTO	_00155_DS_
                                           _00150_DS_
                                           ;	.line	229; "MC32F7361.c"	else if (KEY_2_3_PIN == 0)
0005fd   f594     jbclr   0x194, 0x2       	JBCLR	_IOP1bits,2
0005fe   a60b     goto    0x60b            	GOTO	_00155_DS_
                                           ;	.line	232; "MC32F7361.c"	delay_ms(10);
0005ff   3c0a     movai   0xa              	MOVAI	0x0a
000600   5604     movra   0x4              	MOVRA	STK02
000601   3c00     movai   0                	MOVAI	0x00
000602   5605     movra   0x5              	MOVRA	STK01
000603   3c00     movai   0                	MOVAI	0x00
000604   5606     movra   0x6              	MOVRA	STK00
000605   3c00     movai   0                	MOVAI	0x00
000606   8637     call    0x637            	CALL	_delay_ms
                                           ;	.line	233; "MC32F7361.c"	if (KEY_2_3_PIN == 0)
000607   f594     jbclr   0x194, 0x2       	JBCLR	_IOP1bits,2
000608   a60b     goto    0x60b            	GOTO	_00155_DS_
                                           ;	.line	235; "MC32F7361.c"	right_key_val = RIGHT_KEY_UP;
000609   3c04     movai   0x4              	MOVAI	0x04
00060a   5647     movra   0x47             	MOVRA	_right_key_val
                                           _00155_DS_
                                           ;	.line	238; "MC32F7361.c"	}
00060b   000c     return                   	RETURN	
                                           ; exit point of _key_scan
                                           
                                           ;***
                                           ;  pBlock Stats: dbName = C
                                           ;***
                                           ;entry:  _IO_Init	;Function start
                                           ; 2 exit points
                                           ;has an exit
                                           ;; Starting pCode block
                                           _IO_Init	;Function start
                                           ; 2 exit points
                                           ;	.line	107; "MC32F7361.c"	IOP0 = 0x00;   // io
00060c   7790     clrr    0x190            	CLRR	_IOP0
                                           ;	.line	108; "MC32F7361.c"	OEP0 = 0x3F;   // io 1:out  0:in
00060d   3c3f     movai   0x3f             	MOVAI	0x3f
00060e   5791     movra   0x191            	MOVRA	_OEP0
                                           ;	.line	109; "MC32F7361.c"	PUP0 = 0x00;   // io   1:enable  0:disable
00060f   7792     clrr    0x192            	CLRR	_PUP0
                                           ;	.line	110; "MC32F7361.c"	PDP0 = 0x00;   // io   1:enable  0:disable
000610   7793     clrr    0x193            	CLRR	_PDP0
                                           ;	.line	111; "MC32F7361.c"	P0ADCR = 0x00; // io  1:  0:io
000611   77b6     clrr    0x1b6            	CLRR	_P0ADCR
                                           ;	.line	113; "MC32F7361.c"	IOP1 = 0x00;   // io
000612   7794     clrr    0x194            	CLRR	_IOP1
                                           ;	.line	114; "MC32F7361.c"	OEP1 = 0xFF;   // io 1:out  0:in
000613   3cff     movai   0xff             	MOVAI	0xff
000614   5795     movra   0x195            	MOVRA	_OEP1
                                           ;	.line	115; "MC32F7361.c"	PUP1 = 0x00;   // io   1:enable  0:disable
000615   7796     clrr    0x196            	CLRR	_PUP1
                                           ;	.line	116; "MC32F7361.c"	PDP1 = 0x00;   // io   1:enable  0:disable
000616   7797     clrr    0x197            	CLRR	_PDP1
                                           ;	.line	117; "MC32F7361.c"	P1ADCR = 0x00; // io  1:  0:io
000617   77b7     clrr    0x1b7            	CLRR	_P1ADCR
                                           ;	.line	119; "MC32F7361.c"	IOP2 = 0x00; // io
000618   77b8     clrr    0x1b8            	CLRR	_IOP2
                                           ;	.line	120; "MC32F7361.c"	OEP2 = 0x0F; // io 1:out  0:in
000619   3c0f     movai   0xf              	MOVAI	0x0f
00061a   57b9     movra   0x1b9            	MOVRA	_OEP2
                                           ;	.line	121; "MC32F7361.c"	PUP2 = 0x00; // io   1:enable  0:disable
00061b   77ba     clrr    0x1ba            	CLRR	_PUP2
                                           ;	.line	122; "MC32F7361.c"	PDP2 = 0x00; // io   1:enable  0:disablea
00061c   77bb     clrr    0x1bb            	CLRR	_PDP2
                                           ;	.line	124; "MC32F7361.c"	PMOD = 0x00; // P00P01P13 io
00061d   77bc     clrr    0x1bc            	CLRR	_PMOD
                                           ;	.line	131; "MC32F7361.c"	DRVCR = 0x80; // 
00061e   3c80     movai   0x80             	MOVAI	0x80
00061f   578c     movra   0x18c            	MOVRA	_DRVCR
                                           ;	.line	134; "MC32F7361.c"	OEP0 &= ~0x07; // P00P01P02
000620   3cf8     movai   0xf8             	MOVAI	0xf8
000621   7b91     andra   0x191            	ANDRA	_OEP0
                                           ;	.line	135; "MC32F7361.c"	PUP0 |= 0x07;  // P00P01P02
000622   3c07     movai   0x7              	MOVAI	0x07
000623   5f92     orra    0x192            	ORRA	_PUP0
                                           ;	.line	136; "MC32F7361.c"	OEP1 &= ~0x1E; // P11P12P13P14
000624   3ce1     movai   0xe1             	MOVAI	0xe1
000625   7b95     andra   0x195            	ANDRA	_OEP1
                                           ;	.line	137; "MC32F7361.c"	PUP1 |= 0x1C;  // P12P13P14
000626   3c1c     movai   0x1c             	MOVAI	0x1c
000627   5f96     orra    0x196            	ORRA	_PUP1
                                           ;	.line	139; "MC32F7361.c"	PMOD |= 0x2A; // P00P01P13
000628   3c2a     movai   0x2a             	MOVAI	0x2a
000629   5fbc     orra    0x1bc            	ORRA	_PMOD
                                           ;	.line	140; "MC32F7361.c"	}
00062a   000c     return                   	RETURN	
                                           ; exit point of _IO_Init
                                           
                                           ;***
                                           ;  pBlock Stats: dbName = C
                                           ;***
                                           ;entry:  _CLR_RAM	;Function start
                                           ; 2 exit points
                                           ;has an exit
                                           ;; Starting pCode block
                                           _CLR_RAM	;Function start
                                           ; 2 exit points
                                           ;	.line	92; "MC32F7361.c"	for (FSR0 = 0; FSR0 < 0xff; FSR0++)
00062b   7784     clrr    0x184            	CLRR	_FSR0
                                           ;;unsigned compare: left < lit(0xFF=255), size=1
                                           _00118_DS_
00062c   3cff     movai   0xff             	MOVAI	0xff
00062d   4984     rsubar  0x184            	RSUBAR	_FSR0
00062e   f187     jbclr   0x187, 0         	JBCLR	PFLAG,0
00062f   a633     goto    0x633            	GOTO	_00116_DS_
                                           ;;genSkipc:3291: created from rifx:013B5EFC
                                           ;	.line	94; "MC32F7361.c"	INDF0 = 0x00;
000630   7780     clrr    0x180            	CLRR	_INDF0
                                           ;	.line	92; "MC32F7361.c"	for (FSR0 = 0; FSR0 < 0xff; FSR0++)
000631   6784     incr    0x184            	INCR	_FSR0
000632   a62c     goto    0x62c            	GOTO	_00118_DS_
                                           _00116_DS_
                                           ;	.line	96; "MC32F7361.c"	FSR0 = 0xFF;
000633   3cff     movai   0xff             	MOVAI	0xff
000634   5784     movra   0x184            	MOVRA	_FSR0
                                           ;	.line	97; "MC32F7361.c"	INDF0 = 0x00;
000635   7780     clrr    0x180            	CLRR	_INDF0
                                           ;	.line	98; "MC32F7361.c"	}
000636   000c     return                   	RETURN	
                                           ; exit point of _CLR_RAM
                                           
                                           ;***
                                           ;  pBlock Stats: dbName = C
                                           ;***
                                           ;entry:  _delay_ms	;Function start
                                           ; 2 exit points
                                           ;has an exit
                                           ;11 compiler assigned registers:
                                           ;   r0x101D
                                           ;   STK00
                                           ;   r0x101E
                                           ;   STK01
                                           ;   r0x101F
                                           ;   STK02
                                           ;   r0x1020
                                           ;   r0x1021
                                           ;   r0x1022
                                           ;   r0x1023
                                           ;   r0x1024
                                           ;; Starting pCode block
                                           _delay_ms	;Function start
                                           ; 2 exit points
                                           ;	.line	55; "MC32F7361.c"	void delay_ms(u32 xms)
000637   560a     movra   0xa              	MOVRA	r0x101D
000638   5806     movar   0x6              	MOVAR	STK00
000639   5609     movra   0x9              	MOVRA	r0x101E
00063a   5805     movar   0x5              	MOVAR	STK01
00063b   5608     movra   0x8              	MOVRA	r0x101F
00063c   5804     movar   0x4              	MOVAR	STK02
00063d   5607     movra   0x7              	MOVRA	r0x1020
                                           _00108_DS_
                                           ;	.line	57; "MC32F7361.c"	while (xms)
00063e   5807     movar   0x7              	MOVAR	r0x1020
00063f   5c08     orar    0x8              	ORAR	r0x101F
000640   5c09     orar    0x9              	ORAR	r0x101E
000641   5c0a     orar    0xa              	ORAR	r0x101D
000642   f587     jbclr   0x187, 0x2       	JBCLR	PFLAG,2
000643   a662     goto    0x662            	GOTO	_00111_DS_
                                           ;	.line	60; "MC32F7361.c"	while (i--)
000644   3c26     movai   0x26             	MOVAI	0x26
000645   560b     movra   0xb              	MOVRA	r0x1021
000646   3c02     movai   0x2              	MOVAI	0x02
000647   560c     movra   0xc              	MOVRA	r0x1022
                                           _00105_DS_
000648   580b     movar   0xb              	MOVAR	r0x1021
000649   560d     movra   0xd              	MOVRA	r0x1023
00064a   580c     movar   0xc              	MOVAR	r0x1022
00064b   560e     movra   0xe              	MOVRA	r0x1024
00064c   3cff     movai   0xff             	MOVAI	0xff
00064d   7e0b     addra   0xb              	ADDRA	r0x1021
00064e   e187     jbset   0x187, 0         	JBSET	PFLAG,0
00064f   6e0c     decr    0xc              	DECR	r0x1022
000650   580d     movar   0xd              	MOVAR	r0x1023
000651   5c0e     orar    0xe              	ORAR	r0x1024
000652   f587     jbclr   0x187, 0x2       	JBCLR	PFLAG,2
000653   a656     goto    0x656            	GOTO	_00107_DS_
                                           ;	.line	62; "MC32F7361.c"	Nop();
000654   0000     nop                      	nop
000655   a648     goto    0x648            	GOTO	_00105_DS_
                                           _00107_DS_
                                           ;	.line	64; "MC32F7361.c"	xms--;
000656   3cff     movai   0xff             	MOVAI	0xff
000657   7e07     addra   0x7              	ADDRA	r0x1020
000658   3cff     movai   0xff             	MOVAI	0xff
000659   e187     jbset   0x187, 0         	JBSET	PFLAG,0
00065a   7e08     addra   0x8              	ADDRA	r0x101F
00065b   3cff     movai   0xff             	MOVAI	0xff
00065c   e187     jbset   0x187, 0         	JBSET	PFLAG,0
00065d   7e09     addra   0x9              	ADDRA	r0x101E
00065e   3cff     movai   0xff             	MOVAI	0xff
00065f   e187     jbset   0x187, 0         	JBSET	PFLAG,0
000660   7e0a     addra   0xa              	ADDRA	r0x101D
000661   a63e     goto    0x63e            	GOTO	_00108_DS_
                                           _00111_DS_
                                           ;	.line	66; "MC32F7361.c"	}
000662   000c     return                   	RETURN	
                                           ; exit point of _delay_ms
                                           
                                           
                                           ;	code size estimation:
                                           ;	 1619+    0 =  1619 instructions ( 3238 byte)
                                           
                                           	end
                                           ;--------------------------------------------------------
                                           ; File Created by SN-SDCC : SinoMCU ANSI-C Compiler
                                           ; Version 2.0.0 (Dec 11 2019) (MINGW32)
                                           ; This file was generated Tue Aug 20 10:03:21 2024
                                           ;--------------------------------------------------------
                                           ; MC32 port for the RISC core
                                           ;--------------------------------------------------------
                                           ;	.file	"MC32F7361.c"
                                           	list	p=7361
                                           	radix dec
                                           	include "7361.inc"
                                           ;--------------------------------------------------------
                                           ; external declarations
                                           ;--------------------------------------------------------
                                           	extern	__divulong
                                           	extern	_INDF0bits
                                           	extern	_INDF1bits
                                           	extern	_INDF2bits
                                           	extern	_HIBYTEbits
                                           	extern	_FSR0bits
                                           	extern	_FSR1bits
                                           	extern	_PCLbits
                                           	extern	_PFLAGbits
                                           	extern	_MCRbits
                                           	extern	_INDF3bits
                                           	extern	_INTEbits
                                           	extern	_INTFbits
                                           	extern	_DRVCRbits
                                           	extern	_P0KBCRbits
                                           	extern	_P1KBCRbits
                                           	extern	_P2KBCRbits
                                           	extern	_IOP0bits
                                           	extern	_OEP0bits
                                           	extern	_PUP0bits
                                           	extern	_PDP0bits
                                           	extern	_IOP1bits
                                           	extern	_OEP1bits
                                           	extern	_PUP1bits
                                           	extern	_PDP1bits
                                           	extern	_T0CRbits
                                           	extern	_T0CNTbits
                                           	extern	_T0LOADbits
                                           	extern	_T0DATAbits
                                           	extern	_T1CRbits
                                           	extern	_T1CNTbits
                                           	extern	_T1LOADbits
                                           	extern	_T1DATAbits
                                           	extern	_T2CRbits
                                           	extern	_T2CNTbits
                                           	extern	_T2LOADbits
                                           	extern	_T2DATAbits
                                           	extern	_T3CRbits
                                           	extern	_T3CNTbits
                                           	extern	_T3LOADbits
                                           	extern	_PWM0DRbits
                                           	extern	_PWM1DRbits
                                           	extern	_PWM2DRbits
                                           	extern	_PWMCR0bits
                                           	extern	_PWMCR1bits
                                           	extern	_OSCMRbits
                                           	extern	_LVDCRbits
                                           	extern	_ADCR0bits
                                           	extern	_ADCR1bits
                                           	extern	_ADCR2bits
                                           	extern	_OSADJCRbits
                                           	extern	_ADRHbits
                                           	extern	_ADRLbits
                                           	extern	_P0ADCRbits
                                           	extern	_P1ADCRbits
                                           	extern	_IOP2bits
                                           	extern	_OEP2bits
                                           	extern	_PUP2bits
                                           	extern	_PDP2bits
                                           	extern	_PMODbits
                                           	extern	_PWMCR3bits
                                           	extern	_PWMCR2bits
                                           	extern	_PFRCCRbits
                                           	extern	_PFRCCALbits
                                           	extern	_EECRbits
                                           	extern	_EEPRbits
                                           	extern	_EEARbits
                                           	extern	_EEDRHbits
                                           	extern	_EEDRLbits
                                           	extern	_DBGCRbits
                                           	extern	_DBGPRbits
                                           	extern	_HIRCCALbits
                                           	extern	_INDF0
                                           	extern	_INDF1
                                           	extern	_INDF2
                                           	extern	_HIBYTE
                                           	extern	_FSR0
                                           	extern	_FSR1
                                           	extern	_PCL
                                           	extern	_PFLAG
                                           	extern	_MCR
                                           	extern	_INDF3
                                           	extern	_INTE
                                           	extern	_INTF
                                           	extern	_DRVCR
                                           	extern	_P0KBCR
                                           	extern	_P1KBCR
                                           	extern	_P2KBCR
                                           	extern	_IOP0
                                           	extern	_OEP0
                                           	extern	_PUP0
                                           	extern	_PDP0
                                           	extern	_IOP1
                                           	extern	_OEP1
                                           	extern	_PUP1
                                           	extern	_PDP1
                                           	extern	_T0CR
                                           	extern	_T0CNT
                                           	extern	_T0LOAD
                                           	extern	_T0DATA
                                           	extern	_T1CR
                                           	extern	_T1CNT
                                           	extern	_T1LOAD
                                           	extern	_T1DATA
                                           	extern	_T2CR
                                           	extern	_T2CNT
                                           	extern	_T2LOAD
                                           	extern	_T2DATA
                                           	extern	_T3CR
                                           	extern	_T3CNT
                                           	extern	_T3LOAD
                                           	extern	_PWM0DR
                                           	extern	_PWM1DR
                                           	extern	_PWM2DR
                                           	extern	_PWMCR0
                                           	extern	_PWMCR1
                                           	extern	_OSCMR
                                           	extern	_LVDCR
                                           	extern	_ADCR0
                                           	extern	_ADCR1
                                           	extern	_ADCR2
                                           	extern	_OSADJCR
                                           	extern	_ADRH
                                           	extern	_ADRL
                                           	extern	_P0ADCR
                                           	extern	_P1ADCR
                                           	extern	_IOP2
                                           	extern	_OEP2
                                           	extern	_PUP2
                                           	extern	_PDP2
                                           	extern	_PMOD
                                           	extern	_PWMCR3
                                           	extern	_PWMCR2
                                           	extern	_PFRCCR
                                           	extern	_PFRCCAL
                                           	extern	_EECR
                                           	extern	_EEPR
                                           	extern	_EEAR
                                           	extern	_EEDRH
                                           	extern	_EEDRL
                                           	extern	_DBGCR
                                           	extern	_DBGPR
                                           	extern	_HIRCCAL
                                           	extern	__gptrget1
                                           	extern	__mulchar
                                           ;--------------------------------------------------------
                                           ; global declarations
                                           ;--------------------------------------------------------
                                           	global	_Sys_Init
                                           	global	_mode_breathing
                                           	global	___color_breathing
                                           	global	_mode_gradient
                                           	global	___color_gradient
                                           	global	_color_set_component_b
                                           	global	_color_set_component_g
                                           	global	_color_set_component_r
                                           	global	_color_show
                                           	global	_pwm_set_duty
                                           	global	_timer2_pwm_config
                                           	global	_timer1_pwm_config
                                           	global	_timer0_pwm_config
                                           	global	_key_scan
                                           	global	_IO_Init
                                           	global	_CLR_RAM
                                           	global	_delay_ms
                                           	global	___get_gradient_adjust_time
                                           	global	___get_time_interval
                                           	global	_main
                                           	global	_int_isr
                                           	global	_i
                                           	global	_abuf
                                           	global	_statusbuf
                                           	global	_left_key_val
                                           	global	_right_key_val
                                           	global	_cur_r
                                           	global	_cur_g
                                           	global	_cur_b
                                           	global	_cur_color_index
                                           	global	_color
                                           	global	_next_r
                                           	global	_next_g
                                           	global	_next_b
                                           	global	_tmp_r
                                           	global	_tmp_g
                                           	global	_tmp_b
                                           	global	_time_interval_r
                                           	global	_time_interval_g
                                           	global	_time_interval_b
                                           	global	_cur_mode_status
                                           	global	_flag1
                                           	global	_flag2
                                           	global	_color_buf
                                           
                                           	global STK06
                                           	global STK05
                                           	global STK04
                                           	global STK03
                                           	global STK02
                                           	global STK01
                                           	global STK00
                                           
                                           sharebank udata_ovr 0x0000
                                           STK06	res 1
                                           STK05	res 1
                                           STK04	res 1
                                           STK03	res 1
                                           STK02	res 1
                                           STK01	res 1
                                           STK00	res 1
                                           
                                           ;--------------------------------------------------------
                                           ; global definitions
                                           ;--------------------------------------------------------
                                           UD_MC32F7361_0	udata
                                           _i	res	2
                                           
                                           UD_MC32F7361_1	udata
                                           _abuf	res	1
                                           
                                           UD_MC32F7361_2	udata
                                           _statusbuf	res	1
                                           
                                           UD_MC32F7361_3	udata
                                           _left_key_val	res	1
                                           
                                           UD_MC32F7361_4	udata
                                           _right_key_val	res	1
                                           
                                           UD_MC32F7361_5	udata
                                           _cur_r	res	1
                                           
                                           UD_MC32F7361_6	udata
                                           _cur_g	res	1
                                           
                                           UD_MC32F7361_7	udata
                                           _cur_b	res	1
                                           
                                           UD_MC32F7361_8	udata
                                           _cur_color_index	res	1
                                           
                                           UD_MC32F7361_9	udata
                                           _color	res	3
                                           
                                           UD_MC32F7361_10	udata
                                           _next_r	res	1
                                           
                                           UD_MC32F7361_11	udata
                                           _next_g	res	1
                                           
                                           UD_MC32F7361_12	udata
                                           _next_b	res	1
                                           
                                           UD_MC32F7361_13	udata
                                           _tmp_r	res	2
                                           
                                           UD_MC32F7361_14	udata
                                           _tmp_g	res	2
                                           
                                           UD_MC32F7361_15	udata
                                           _tmp_b	res	2
                                           
                                           UD_MC32F7361_16	udata
                                           _time_interval_r	res	2
                                           
                                           UD_MC32F7361_17	udata
                                           _time_interval_g	res	2
                                           
                                           UD_MC32F7361_18	udata
                                           _time_interval_b	res	2
                                           
                                           UD_MC32F7361_19	udata
                                           _cur_mode_status	res	1
                                           
                                           UD_MC32F7361_20	udata
                                           _flag1	res	1
                                           
                                           UD_MC32F7361_21	udata
                                           _flag2	res	1
                                           
                                           ;--------------------------------------------------------
                                           ; absolute symbol definitions
                                           ;--------------------------------------------------------
                                           ;--------------------------------------------------------
                                           ; compiler-defined variables
                                           ;--------------------------------------------------------
                                           UDL_MC32F7361_0	udata
                                           r0x1020	res	1
                                           r0x101F	res	1
                                           r0x101E	res	1
                                           r0x101D	res	1
                                           r0x1021	res	1
                                           r0x1022	res	1
                                           r0x1023	res	1
                                           r0x1024	res	1
                                           r0x1025	res	1
                                           r0x1027	res	1
                                           r0x1026	res	1
                                           r0x1028	res	1
                                           r0x1029	res	1
                                           r0x102A	res	1
                                           r0x102B	res	1
                                           r0x102D	res	1
                                           r0x102F	res	1
                                           r0x102C	res	1
                                           r0x102E	res	1
                                           r0x1030	res	1
                                           r0x1032	res	1
                                           r0x1031	res	1
                                           r0x1033	res	1
                                           ;--------------------------------------------------------
                                           ; initialized data
                                           ;--------------------------------------------------------
                                           
                                           ID_MC32F7361_0	code
                                           _color_buf
                                           	dw 0xff
                                           	dw 0x21
                                           	dw 0x17
                                           	dw 0x66
                                           	dw 0x27
                                           	dw 0xbf
                                           	dw 0x00
                                           	dw 0x00
                                           	dw 0xff
                                           	dw 0x00
                                           	dw 0xff
                                           	dw 0xff
                                           	dw 0x00
                                           	dw 0xff
                                           	dw 0x00
                                           	dw 0xff
                                           	dw 0x41
                                           	dw 0x00
                                           	dw 0xff
                                           	dw 0x19
                                           	dw 0x00
                                           	dw 0xff
                                           	dw 0x00
                                           	dw 0x00
                                           	dw 0xff
                                           	dw 0x00
                                           	dw 0x20
                                           	dw 0xff
                                           	dw 0x00
                                           	dw 0xff
                                           
                                           
                                           ;@Allocation info for local variables in function 'delay_ms'
                                           ;@delay_ms Sys_Init                  Allocated to registers ;size:2
                                           ;@delay_ms CLR_RAM                   Allocated to registers ;size:2
                                           ;@delay_ms IO_Init                   Allocated to registers ;size:2
                                           ;@delay_ms key_scan                  Allocated to registers ;size:2
                                           ;@delay_ms timer0_pwm_config         Allocated to registers ;size:2
                                           ;@delay_ms timer1_pwm_config         Allocated to registers ;size:2
                                           ;@delay_ms timer2_pwm_config         Allocated to registers ;size:2
                                           ;@delay_ms pwm_set_duty              Allocated to registers ;size:2
                                           ;@delay_ms color_set_component_r     Allocated to registers ;size:2
                                           ;@delay_ms color_set_component_g     Allocated to registers ;size:2
                                           ;@delay_ms color_set_component_b     Allocated to registers ;size:2
                                           ;@delay_ms color_show                Allocated to registers ;size:2
                                           ;@delay_ms __color_gradient          Allocated to registers ;size:2
                                           ;@delay_ms mode_gradient             Allocated to registers ;size:2
                                           ;@delay_ms __color_breathing         Allocated to registers ;size:2
                                           ;@delay_ms mode_breathing            Allocated to registers ;size:2
                                           ;@delay_ms INDF0bits                 Allocated to registers ;size:1
                                           ;@delay_ms INDF1bits                 Allocated to registers ;size:1
                                           ;@delay_ms INDF2bits                 Allocated to registers ;size:1
                                           ;@delay_ms HIBYTEbits                Allocated to registers ;size:1
                                           ;@delay_ms FSR0bits                  Allocated to registers ;size:1
                                           ;@delay_ms FSR1bits                  Allocated to registers ;size:1
                                           ;@delay_ms PCLbits                   Allocated to registers ;size:1
                                           ;@delay_ms PFLAGbits                 Allocated to registers ;size:1
                                           ;@delay_ms MCRbits                   Allocated to registers ;size:1
                                           ;@delay_ms INDF3bits                 Allocated to registers ;size:1
                                           ;@delay_ms INTEbits                  Allocated to registers ;size:1
                                           ;@delay_ms INTFbits                  Allocated to registers ;size:1
                                           ;@delay_ms DRVCRbits                 Allocated to registers ;size:1
                                           ;@delay_ms P0KBCRbits                Allocated to registers ;size:1
                                           ;@delay_ms P1KBCRbits                Allocated to registers ;size:1
                                           ;@delay_ms P2KBCRbits                Allocated to registers ;size:1
                                           ;@delay_ms IOP0bits                  Allocated to registers ;size:1
                                           ;@delay_ms OEP0bits                  Allocated to registers ;size:1
                                           ;@delay_ms PUP0bits                  Allocated to registers ;size:1
                                           ;@delay_ms PDP0bits                  Allocated to registers ;size:1
                                           ;@delay_ms IOP1bits                  Allocated to registers ;size:1
                                           ;@delay_ms OEP1bits                  Allocated to registers ;size:1
                                           ;@delay_ms PUP1bits                  Allocated to registers ;size:1
                                           ;@delay_ms PDP1bits                  Allocated to registers ;size:1
                                           ;@delay_ms T0CRbits                  Allocated to registers ;size:1
                                           ;@delay_ms T0CNTbits                 Allocated to registers ;size:1
                                           ;@delay_ms T0LOADbits                Allocated to registers ;size:1
                                           ;@delay_ms T0DATAbits                Allocated to registers ;size:1
                                           ;@delay_ms T1CRbits                  Allocated to registers ;size:1
                                           ;@delay_ms T1CNTbits                 Allocated to registers ;size:1
                                           ;@delay_ms T1LOADbits                Allocated to registers ;size:1
                                           ;@delay_ms T1DATAbits                Allocated to registers ;size:1
                                           ;@delay_ms T2CRbits                  Allocated to registers ;size:1
                                           ;@delay_ms T2CNTbits                 Allocated to registers ;size:1
                                           ;@delay_ms T2LOADbits                Allocated to registers ;size:1
                                           ;@delay_ms T2DATAbits                Allocated to registers ;size:1
                                           ;@delay_ms T3CRbits                  Allocated to registers ;size:1
                                           ;@delay_ms T3CNTbits                 Allocated to registers ;size:1
                                           ;@delay_ms T3LOADbits                Allocated to registers ;size:1
                                           ;@delay_ms PWM0DRbits                Allocated to registers ;size:1
                                           ;@delay_ms PWM1DRbits                Allocated to registers ;size:1
                                           ;@delay_ms PWM2DRbits                Allocated to registers ;size:1
                                           ;@delay_ms PWMCR0bits                Allocated to registers ;size:1
                                           ;@delay_ms PWMCR1bits                Allocated to registers ;size:1
                                           ;@delay_ms OSCMRbits                 Allocated to registers ;size:1
                                           ;@delay_ms LVDCRbits                 Allocated to registers ;size:1
                                           ;@delay_ms ADCR0bits                 Allocated to registers ;size:1
                                           ;@delay_ms ADCR1bits                 Allocated to registers ;size:1
                                           ;@delay_ms ADCR2bits                 Allocated to registers ;size:1
                                           ;@delay_ms OSADJCRbits               Allocated to registers ;size:1
                                           ;@delay_ms ADRHbits                  Allocated to registers ;size:1
                                           ;@delay_ms ADRLbits                  Allocated to registers ;size:1
                                           ;@delay_ms P0ADCRbits                Allocated to registers ;size:1
                                           ;@delay_ms P1ADCRbits                Allocated to registers ;size:1
                                           ;@delay_ms IOP2bits                  Allocated to registers ;size:1
                                           ;@delay_ms OEP2bits                  Allocated to registers ;size:1
                                           ;@delay_ms PUP2bits                  Allocated to registers ;size:1
                                           ;@delay_ms PDP2bits                  Allocated to registers ;size:1
                                           ;@delay_ms PMODbits                  Allocated to registers ;size:1
                                           ;@delay_ms PWMCR3bits                Allocated to registers ;size:1
                                           ;@delay_ms PWMCR2bits                Allocated to registers ;size:1
                                           ;@delay_ms PFRCCRbits                Allocated to registers ;size:1
                                           ;@delay_ms PFRCCALbits               Allocated to registers ;size:1
                                           ;@delay_ms EECRbits                  Allocated to registers ;size:1
                                           ;@delay_ms EEPRbits                  Allocated to registers ;size:1
                                           ;@delay_ms EEARbits                  Allocated to registers ;size:1
                                           ;@delay_ms EEDRHbits                 Allocated to registers ;size:1
                                           ;@delay_ms EEDRLbits                 Allocated to registers ;size:1
                                           ;@delay_ms DBGCRbits                 Allocated to registers ;size:1
                                           ;@delay_ms DBGPRbits                 Allocated to registers ;size:1
                                           ;@delay_ms HIRCCALbits               Allocated to registers ;size:1
                                           ;@delay_ms i                         Allocated to registers ;size:2
                                           ;@delay_ms abuf                      Allocated to registers ;size:1
                                           ;@delay_ms statusbuf                 Allocated to registers ;size:1
                                           ;@delay_ms left_key_val              Allocated to registers ;size:1
                                           ;@delay_ms right_key_val             Allocated to registers ;size:1
                                           ;@delay_ms cur_r                     Allocated to registers ;size:1
                                           ;@delay_ms cur_g                     Allocated to registers ;size:1
                                           ;@delay_ms cur_b                     Allocated to registers ;size:1
                                           ;@delay_ms cur_color_index           Allocated to registers ;size:1
                                           ;@delay_ms color                     Allocated to registers ;size:3
                                           ;@delay_ms next_r                    Allocated to registers ;size:1
                                           ;@delay_ms next_g                    Allocated to registers ;size:1
                                           ;@delay_ms next_b                    Allocated to registers ;size:1
                                           ;@delay_ms tmp_r                     Allocated to registers ;size:2
                                           ;@delay_ms tmp_g                     Allocated to registers ;size:2
                                           ;@delay_ms tmp_b                     Allocated to registers ;size:2
                                           ;@delay_ms time_interval_r           Allocated to registers ;size:2
                                           ;@delay_ms time_interval_g           Allocated to registers ;size:2
                                           ;@delay_ms time_interval_b           Allocated to registers ;size:2
                                           ;@delay_ms cur_mode_status           Allocated to registers ;size:1
                                           ;@delay_ms flag1                     Allocated to registers ;size:1
                                           ;@delay_ms flag2                     Allocated to registers ;size:1
                                           ;@delay_ms xms                       Allocated to registers ;size:4
                                           ;@delay_ms i                         Allocated to registers r0x1021 r0x1022 ;size:2
                                           ;@delay_ms INDF0                     Allocated to registers ;size:1
                                           ;@delay_ms INDF1                     Allocated to registers ;size:1
                                           ;@delay_ms INDF2                     Allocated to registers ;size:1
                                           ;@delay_ms HIBYTE                    Allocated to registers ;size:1
                                           ;@delay_ms FSR0                      Allocated to registers ;size:1
                                           ;@delay_ms FSR1                      Allocated to registers ;size:1
                                           ;@delay_ms PCL                       Allocated to registers ;size:1
                                           ;@delay_ms PFLAG                     Allocated to registers ;size:1
                                           ;@delay_ms MCR                       Allocated to registers ;size:1
                                           ;@delay_ms INDF3                     Allocated to registers ;size:1
                                           ;@delay_ms INTE                      Allocated to registers ;size:1
                                           ;@delay_ms INTF                      Allocated to registers ;size:1
                                           ;@delay_ms DRVCR                     Allocated to registers ;size:1
                                           ;@delay_ms P0KBCR                    Allocated to registers ;size:1
                                           ;@delay_ms P1KBCR                    Allocated to registers ;size:1
                                           ;@delay_ms P2KBCR                    Allocated to registers ;size:1
                                           ;@delay_ms IOP0                      Allocated to registers ;size:1
                                           ;@delay_ms OEP0                      Allocated to registers ;size:1
                                           ;@delay_ms PUP0                      Allocated to registers ;size:1
                                           ;@delay_ms PDP0                      Allocated to registers ;size:1
                                           ;@delay_ms IOP1                      Allocated to registers ;size:1
                                           ;@delay_ms OEP1                      Allocated to registers ;size:1
                                           ;@delay_ms PUP1                      Allocated to registers ;size:1
                                           ;@delay_ms PDP1                      Allocated to registers ;size:1
                                           ;@delay_ms T0CR                      Allocated to registers ;size:1
                                           ;@delay_ms T0CNT                     Allocated to registers ;size:1
                                           ;@delay_ms T0LOAD                    Allocated to registers ;size:1
                                           ;@delay_ms T0DATA                    Allocated to registers ;size:1
                                           ;@delay_ms T1CR                      Allocated to registers ;size:1
                                           ;@delay_ms T1CNT                     Allocated to registers ;size:1
                                           ;@delay_ms T1LOAD                    Allocated to registers ;size:1
                                           ;@delay_ms T1DATA                    Allocated to registers ;size:1
                                           ;@delay_ms T2CR                      Allocated to registers ;size:1
                                           ;@delay_ms T2CNT                     Allocated to registers ;size:1
                                           ;@delay_ms T2LOAD                    Allocated to registers ;size:1
                                           ;@delay_ms T2DATA                    Allocated to registers ;size:1
                                           ;@delay_ms T3CR                      Allocated to registers ;size:1
                                           ;@delay_ms T3CNT                     Allocated to registers ;size:1
                                           ;@delay_ms T3LOAD                    Allocated to registers ;size:1
                                           ;@delay_ms PWM0DR                    Allocated to registers ;size:1
                                           ;@delay_ms PWM1DR                    Allocated to registers ;size:1
                                           ;@delay_ms PWM2DR                    Allocated to registers ;size:1
                                           ;@delay_ms PWMCR0                    Allocated to registers ;size:1
                                           ;@delay_ms PWMCR1                    Allocated to registers ;size:1
                                           ;@delay_ms OSCMR                     Allocated to registers ;size:1
                                           ;@delay_ms LVDCR                     Allocated to registers ;size:1
                                           ;@delay_ms ADCR0                     Allocated to registers ;size:1
                                           ;@delay_ms ADCR1                     Allocated to registers ;size:1
                                           ;@delay_ms ADCR2                     Allocated to registers ;size:1
                                           ;@delay_ms OSADJCR                   Allocated to registers ;size:1
                                           ;@delay_ms ADRH                      Allocated to registers ;size:1
                                           ;@delay_ms ADRL                      Allocated to registers ;size:1
                                           ;@delay_ms P0ADCR                    Allocated to registers ;size:1
                                           ;@delay_ms P1ADCR                    Allocated to registers ;size:1
                                           ;@delay_ms IOP2                      Allocated to registers ;size:1
                                           ;@delay_ms OEP2                      Allocated to registers ;size:1
                                           ;@delay_ms PUP2                      Allocated to registers ;size:1
                                           ;@delay_ms PDP2                      Allocated to registers ;size:1
                                           ;@delay_ms PMOD                      Allocated to registers ;size:1
                                           ;@delay_ms PWMCR3                    Allocated to registers ;size:1
                                           ;@delay_ms PWMCR2                    Allocated to registers ;size:1
                                           ;@delay_ms PFRCCR                    Allocated to registers ;size:1
                                           ;@delay_ms PFRCCAL                   Allocated to registers ;size:1
                                           ;@delay_ms EECR                      Allocated to registers ;size:1
                                           ;@delay_ms EEPR                      Allocated to registers ;size:1
                                           ;@delay_ms EEAR                      Allocated to registers ;size:1
                                           ;@delay_ms EEDRH                     Allocated to registers ;size:1
                                           ;@delay_ms EEDRL                     Allocated to registers ;size:1
                                           ;@delay_ms DBGCR                     Allocated to registers ;size:1
                                           ;@delay_ms DBGPR                     Allocated to registers ;size:1
                                           ;@delay_ms HIRCCAL                   Allocated to registers ;size:1
                                           ;@end Allocation info for local variables in function 'delay_ms';
                                           ;@Allocation info for local variables in function 'CLR_RAM'
                                           ;@end Allocation info for local variables in function 'CLR_RAM';
                                           ;@Allocation info for local variables in function 'IO_Init'
                                           ;@end Allocation info for local variables in function 'IO_Init';
                                           ;@Allocation info for local variables in function 'key_scan'
                                           ;@end Allocation info for local variables in function 'key_scan';
                                           ;@Allocation info for local variables in function 'timer0_pwm_config'
                                           ;@end Allocation info for local variables in function 'timer0_pwm_config';
                                           ;@Allocation info for local variables in function 'timer1_pwm_config'
                                           ;@end Allocation info for local variables in function 'timer1_pwm_config';
                                           ;@Allocation info for local variables in function 'timer2_pwm_config'
                                           ;@end Allocation info for local variables in function 'timer2_pwm_config';
                                           ;@Allocation info for local variables in function 'pwm_set_duty'
                                           ;@pwm_set_duty duty                      Allocated to registers r0x101E ;size:1
                                           ;@pwm_set_duty pwm_x                     Allocated to registers r0x101D ;size:1
                                           ;@end Allocation info for local variables in function 'pwm_set_duty';
                                           ;@Allocation info for local variables in function 'color_show'
                                           ;@color_show rgb_val                   Allocated to registers r0x1022 r0x1021 r0x1020 ;size:3
                                           ;@end Allocation info for local variables in function 'color_show';
                                           ;@Allocation info for local variables in function 'color_set_component_r'
                                           ;@color_set_component_r component_r_val           Allocated to registers r0x101F ;size:1
                                           ;@end Allocation info for local variables in function 'color_set_component_r';
                                           ;@Allocation info for local variables in function 'color_set_component_g'
                                           ;@color_set_component_g component_g_val           Allocated to registers r0x101F ;size:1
                                           ;@end Allocation info for local variables in function 'color_set_component_g';
                                           ;@Allocation info for local variables in function 'color_set_component_b'
                                           ;@color_set_component_b component_b_val           Allocated to registers r0x101F ;size:1
                                           ;@end Allocation info for local variables in function 'color_set_component_b';
                                           ;@Allocation info for local variables in function '__get_gradient_adjust_time'
                                           ;@__get_gradient_adjust_time color_component           Allocated to registers r0x101D ;size:1
                                           ;@end Allocation info for local variables in function '__get_gradient_adjust_time';
                                           ;@Allocation info for local variables in function '__color_gradient'
                                           ;@__color_gradient next_color                Allocated to registers r0x1027 r0x1026 r0x1025 ;size:3
                                           ;@__color_gradient diff_r                    Allocated to registers r0x1027 ;size:1
                                           ;@__color_gradient diff_g                    Allocated to registers r0x1026 ;size:1
                                           ;@__color_gradient diff_b                    Allocated to registers r0x1025 ;size:1
                                           ;@__color_gradient i                         Allocated to registers r0x1027 r0x1026 ;size:2
                                           ;@end Allocation info for local variables in function '__color_gradient';
                                           ;@Allocation info for local variables in function 'mode_gradient'
                                           ;@end Allocation info for local variables in function 'mode_gradient';
                                           ;@Allocation info for local variables in function '__get_time_interval'
                                           ;@__get_time_interval color_component           Allocated to registers r0x101E ;size:1
                                           ;@__get_time_interval light_on_off              Allocated to registers r0x101D ;size:1
                                           ;@end Allocation info for local variables in function '__get_time_interval';
                                           ;@Allocation info for local variables in function '__color_breathing'
                                           ;@__color_breathing next_color                Allocated to registers r0x1028 r0x1027 r0x1026 ;size:3
                                           ;@end Allocation info for local variables in function '__color_breathing';
                                           ;@Allocation info for local variables in function 'mode_breathing'
                                           ;@end Allocation info for local variables in function 'mode_breathing';
                                           ;@Allocation info for local variables in function 'Sys_Init'
                                           ;@end Allocation info for local variables in function 'Sys_Init';
                                           ;@Allocation info for local variables in function 'main'
                                           ;@end Allocation info for local variables in function 'main';
                                           ;@Allocation info for local variables in function 'int_isr'
                                           ;@end Allocation info for local variables in function 'int_isr';
                                           
                                           ;--------------------------------------------------------
                                           ; overlayable items in internal ram 
                                           ;--------------------------------------------------------
                                           ;	udata_ovr
                                           ;--------------------------------------------------------
                                           ; reset vector 
                                           ;--------------------------------------------------------
                                           STARTUP	code 0x0000
                                           	goto	_main
                                           ;--------------------------------------------------------
                                           ; interrupt and initialization code
                                           ;--------------------------------------------------------
                                           c_interrupt	code	0x8
                                           __sdcc_interrupt
                                           ;***
                                           ;  pBlock Stats: dbName = I
                                           ;***
                                           ;entry:  _int_isr	;Function start
                                           ; 0 exit points
                                           ;; Starting pCode block
                                           _int_isr	;Function start
                                           ; 0 exit points
                                           ;	.line	1270; "MC32F7361.c"	__endasm;
                                           	;
                                           	movra	_abuf;
                                           	swapar	_PFLAG;
                                           	movra	_statusbuf;
                                           	
                                           ;	.line	1283; "MC32F7361.c"	__endasm;
                                           	;
                                           	swapar	_statusbuf;
                                           	movra	_PFLAG;
                                           	swapr	_abuf;
                                           	swapar	_abuf;
                                           	
                                           END_OF_INTERRUPT
                                           ;	.line	1284; "MC32F7361.c"	}
                                           	RETIE	
                                           
                                           ;--------------------------------------------------------
                                           ; code
                                           ;--------------------------------------------------------
                                           code_MC32F7361	code
                                           ;***
                                           ;  pBlock Stats: dbName = M
                                           ;***
                                           ;entry:  _main	;Function start
                                           ; 2 exit points
                                           ;has an exit
                                           ;functions called:
                                           ;   _Sys_Init
                                           ;   _color_show
                                           ;   _key_scan
                                           ;   _color_show
                                           ;   _key_scan
                                           ;   _mode_gradient
                                           ;   _mode_breathing
                                           ;   __mulchar
                                           ;   __gptrget1
                                           ;   __mulchar
                                           ;   __gptrget1
                                           ;   __mulchar
                                           ;   __gptrget1
                                           ;   _color_show
                                           ;   _key_scan
                                           ;   _color_show
                                           ;   _Sys_Init
                                           ;   _color_show
                                           ;   _key_scan
                                           ;   _color_show
                                           ;   _key_scan
                                           ;   _mode_gradient
                                           ;   _mode_breathing
                                           ;   __mulchar
                                           ;   __gptrget1
                                           ;   __mulchar
                                           ;   __gptrget1
                                           ;   __mulchar
                                           ;   __gptrget1
                                           ;   _color_show
                                           ;   _key_scan
                                           ;   _color_show
                                           ;5 compiler assigned registers:
                                           ;   r0x1031
                                           ;   r0x1032
                                           ;   r0x1033
                                           ;   STK01
                                           ;   STK00
                                           ;; Starting pCode block
                                           _main	;Function start
                                           ; 2 exit points
                                           ;	.line	1032; "MC32F7361.c"	Sys_Init();
                                           	CALL	_Sys_Init
                                           ;;gen.c:6570: size=0, offset=0, AOP_TYPE(res)=8
                                           ;	.line	1034; "MC32F7361.c"	color[0] = 0x00;
                                           	CLRR	(_color + 0)
                                           ;;gen.c:6570: size=0, offset=0, AOP_TYPE(res)=8
                                           ;	.line	1035; "MC32F7361.c"	color[1] = 0x00;
                                           	CLRR	(_color + 1)
                                           ;;gen.c:6570: size=0, offset=0, AOP_TYPE(res)=8
                                           ;	.line	1036; "MC32F7361.c"	color[2] = 0x00;
                                           	CLRR	(_color + 2)
                                           ;	.line	1037; "MC32F7361.c"	color_show(color);   // 
                                           	MOVAI	high (_color + 0)
                                           	MOVRA	r0x1031
                                           	MOVAI	(_color + 0)
                                           	MOVRA	r0x1032
                                           	CLRR	r0x1033
                                           	MOVAR	r0x1032
                                           	MOVRA	STK01
                                           	MOVAR	r0x1031
                                           	MOVRA	STK00
                                           	MOVAI	0x00
                                           	CALL	_color_show
                                           ;	.line	1038; "MC32F7361.c"	cur_color_index = 0; // 0
                                           	CLRR	_cur_color_index
                                           _00900_DS_
                                           ;	.line	1071; "MC32F7361.c"	key_scan(); //  (20ms)
                                           	CALL	_key_scan
                                           ;	.line	1074; "MC32F7361.c"	if (RIGHT_KEY_UP == right_key_val)
                                           	MOVAR	_right_key_val
                                           	XORAI	0x04
                                           	JBSET	PFLAG,2
                                           	GOTO	_00868_DS_
                                           ;;gen.c:6570: size=0, offset=0, AOP_TYPE(res)=8
                                           ;	.line	1077; "MC32F7361.c"	color[0] = 0x00;
                                           	CLRR	(_color + 0)
                                           ;;gen.c:6570: size=0, offset=0, AOP_TYPE(res)=8
                                           ;	.line	1078; "MC32F7361.c"	color[1] = 0x00;
                                           	CLRR	(_color + 1)
                                           ;;gen.c:6570: size=0, offset=0, AOP_TYPE(res)=8
                                           ;	.line	1079; "MC32F7361.c"	color[2] = 0x00;
                                           	CLRR	(_color + 2)
                                           ;	.line	1080; "MC32F7361.c"	color_show(color); // 
                                           	MOVAI	high (_color + 0)
                                           	MOVRA	r0x1031
                                           	MOVAI	(_color + 0)
                                           	MOVRA	r0x1032
                                           	CLRR	r0x1033
                                           	MOVAR	r0x1032
                                           	MOVRA	STK01
                                           	MOVAR	r0x1031
                                           	MOVRA	STK00
                                           	MOVAI	0x00
                                           	CALL	_color_show
                                           ;	.line	1081; "MC32F7361.c"	cur_color_index = 0;
                                           	CLRR	_cur_color_index
                                           ;	.line	1082; "MC32F7361.c"	cur_mode_status = MODE_CLOSE;
                                           	CLRR	_cur_mode_status
                                           _00864_DS_
                                           ;	.line	1084; "MC32F7361.c"	while (RIGHT_KEY_UP == right_key_val) // 
                                           	MOVAR	_right_key_val
                                           	XORAI	0x04
                                           	JBSET	PFLAG,2
                                           	GOTO	_00868_DS_
                                           ;	.line	1086; "MC32F7361.c"	key_scan(); // 
                                           	CALL	_key_scan
                                           	GOTO	_00864_DS_
                                           _00868_DS_
                                           ;	.line	1091; "MC32F7361.c"	if (RIGHT_KEY_MID == right_key_val)
                                           	MOVAR	_right_key_val
                                           	XORAI	0x05
                                           	JBSET	PFLAG,2
                                           	GOTO	_00875_DS_
                                           ;	.line	1094; "MC32F7361.c"	if (LIGHT_SENSOR_PIN)
                                           	JBSET	_IOP1bits,1
                                           	GOTO	_00870_DS_
                                           ;	.line	1097; "MC32F7361.c"	RGB_ENABLE = 1; // 
                                           	BSET	_flag1,3
                                           	GOTO	_00876_DS_
                                           _00870_DS_
                                           ;	.line	1102; "MC32F7361.c"	RGB_ENABLE = 0; // 
                                           	BCLR	_flag1,3
                                           	GOTO	_00876_DS_
                                           _00875_DS_
                                           ;	.line	1105; "MC32F7361.c"	else if (RIGHT_KEY_BOTTOM == right_key_val)
                                           	MOVAR	_right_key_val
                                           	XORAI	0x06
                                           	JBSET	PFLAG,2
                                           	GOTO	_00876_DS_
                                           ;	.line	1108; "MC32F7361.c"	RGB_ENABLE = 1; // 
                                           	BSET	_flag1,3
                                           _00876_DS_
                                           ;	.line	1112; "MC32F7361.c"	if (RGB_ENABLE)
                                           	JBSET	_flag1,3
                                           	GOTO	_00897_DS_
                                           ;	.line	1114; "MC32F7361.c"	if (LEFT_EY_UP == left_key_val)
                                           	MOVAR	_left_key_val
                                           	XORAI	0x01
                                           	JBSET	PFLAG,2
                                           	GOTO	_00878_DS_
                                           ;	.line	1117; "MC32F7361.c"	LOCK_FLAG = 1;
                                           	BSET	_flag1,5
                                           	GOTO	_00879_DS_
                                           _00878_DS_
                                           ;	.line	1121; "MC32F7361.c"	LOCK_FLAG = 0;
                                           	BCLR	_flag1,5
                                           _00879_DS_
                                           ;	.line	1124; "MC32F7361.c"	if (LEFT_KEY_MID == left_key_val && 0 == LOCK_FLAG)
                                           	MOVAR	_left_key_val
                                           	XORAI	0x02
                                           	JBSET	PFLAG,2
                                           	GOTO	_00893_DS_
                                           	JBCLR	_flag1,5
                                           	GOTO	_00893_DS_
                                           ;	.line	1136; "MC32F7361.c"	mode_gradient();
                                           	CALL	_mode_gradient
                                           ;	.line	1137; "MC32F7361.c"	cur_mode_status = MODE_GRADIENT;
                                           	MOVAI	0x02
                                           	MOVRA	_cur_mode_status
                                           	GOTO	_00900_DS_
                                           _00893_DS_
                                           ;	.line	1139; "MC32F7361.c"	else if (LEFT_KEY_BOTTOM == left_key_val && 0 == LOCK_FLAG)
                                           	MOVAR	_left_key_val
                                           	XORAI	0x03
                                           	JBSET	PFLAG,2
                                           	GOTO	_00889_DS_
                                           	JBCLR	_flag1,5
                                           	GOTO	_00889_DS_
                                           ;	.line	1151; "MC32F7361.c"	mode_breathing();
                                           	CALL	_mode_breathing
                                           ;	.line	1152; "MC32F7361.c"	cur_mode_status = MODE_BREATHING;
                                           	MOVAI	0x01
                                           	MOVRA	_cur_mode_status
                                           	GOTO	_00900_DS_
                                           _00889_DS_
                                           ;	.line	1154; "MC32F7361.c"	else if (1 == LOCK_FLAG)
                                           	CLRR	r0x1032
                                           	JBCLR	_flag1,5
                                           	INCR	r0x1032
                                           	MOVAR	r0x1032
                                           	XORAI	0x01
                                           	JBSET	PFLAG,2
                                           	GOTO	_00900_DS_
                                           ;	.line	1157; "MC32F7361.c"	if (cur_color_index > 0)
                                           	MOVAI	0x00
                                           	ORAR	_cur_color_index
                                           	JBCLR	PFLAG,2
                                           	GOTO	_00881_DS_
                                           ;	.line	1159; "MC32F7361.c"	cur_color_index--; // /
                                           	DECR	_cur_color_index
                                           _00881_DS_
                                           ;	.line	1164; "MC32F7361.c"	color[0] = color_buf[cur_color_index][0];
                                           	MOVAI	0x03
                                           	MOVRA	STK00
                                           	MOVAR	_cur_color_index
                                           	CALL	__mulchar
                                           	MOVRA	r0x1032
                                           	MOVAR	r0x1032
                                           	ADDAI	(_color_buf + 0)
                                           	MOVRA	r0x1032
                                           	MOVAI	high (_color_buf + 0)
                                           	JBCLR	PFLAG,0
                                           	ADDAI	0x01
                                           	MOVRA	r0x1031
                                           	MOVAR	r0x1032
                                           	MOVRA	STK01
                                           	MOVAR	r0x1031
                                           	MOVRA	STK00
                                           	MOVAI	0x80
                                           	CALL	__gptrget1
                                           	MOVRA	(_color + 0)
                                           	MOVRA	r0x1033
                                           ;;gen.c:6570: size=0, offset=0, AOP_TYPE(res)=8
                                           ;;126	MOVAR	r0x1033
                                           ;	.line	1165; "MC32F7361.c"	color[1] = color_buf[cur_color_index][1];
                                           	MOVAI	0x03
                                           	MOVRA	STK00
                                           	MOVAR	_cur_color_index
                                           	CALL	__mulchar
                                           	MOVRA	r0x1032
                                           	MOVAR	r0x1032
                                           	ADDAI	(_color_buf + 0)
                                           	MOVRA	r0x1032
                                           	MOVAI	high (_color_buf + 0)
                                           	JBCLR	PFLAG,0
                                           	ADDAI	0x01
                                           	MOVRA	r0x1031
                                           	INCR	r0x1032
                                           	JBCLR	PFLAG,2
                                           	INCR	r0x1031
                                           	MOVAR	r0x1032
                                           	MOVRA	STK01
                                           	MOVAR	r0x1031
                                           	MOVRA	STK00
                                           	MOVAI	0x80
                                           	CALL	__gptrget1
                                           	MOVRA	(_color + 1)
                                           	MOVRA	r0x1033
                                           ;;gen.c:6570: size=0, offset=0, AOP_TYPE(res)=8
                                           ;;123	MOVAR	r0x1033
                                           ;	.line	1166; "MC32F7361.c"	color[2] = color_buf[cur_color_index][2];
                                           	MOVAI	0x03
                                           	MOVRA	STK00
                                           	MOVAR	_cur_color_index
                                           	CALL	__mulchar
                                           	MOVRA	r0x1032
                                           	MOVAR	r0x1032
                                           	ADDAI	(_color_buf + 0)
                                           	MOVRA	r0x1032
                                           	MOVAI	high (_color_buf + 0)
                                           	JBCLR	PFLAG,0
                                           	ADDAI	0x01
                                           	MOVRA	r0x1031
                                           	MOVAI	0x02
                                           	ADDRA	r0x1032
                                           	JBCLR	PFLAG,0
                                           	INCR	r0x1031
                                           	MOVAR	r0x1032
                                           	MOVRA	STK01
                                           	MOVAR	r0x1031
                                           	MOVRA	STK00
                                           	MOVAI	0x80
                                           	CALL	__gptrget1
                                           	MOVRA	(_color + 2)
                                           	MOVRA	r0x1033
                                           ;;gen.c:6570: size=0, offset=0, AOP_TYPE(res)=8
                                           ;;120	MOVAR	r0x1033
                                           ;	.line	1167; "MC32F7361.c"	color_show(color); // 
                                           	MOVAI	high (_color + 0)
                                           	MOVRA	r0x1031
                                           	MOVAI	(_color + 0)
                                           	MOVRA	r0x1032
                                           	CLRR	r0x1033
                                           	MOVAR	r0x1032
                                           	MOVRA	STK01
                                           	MOVAR	r0x1031
                                           	MOVRA	STK00
                                           	MOVAI	0x00
                                           	CALL	_color_show
                                           ;	.line	1168; "MC32F7361.c"	cur_mode_status = MODE_LOCK;
                                           	MOVAI	0x03
                                           	MOVRA	_cur_mode_status
                                           _00883_DS_
                                           ;	.line	1170; "MC32F7361.c"	while (LEFT_EY_UP == left_key_val && RIGHT_KEY_UP != right_key_val)
                                           	MOVAR	_left_key_val
                                           	XORAI	0x01
                                           	JBSET	PFLAG,2
                                           	GOTO	_00900_DS_
                                           	MOVAR	_right_key_val
                                           	XORAI	0x04
                                           	JBSET	PFLAG,2
                                           	GOTO	_00976_DS_
                                           	GOTO	_00900_DS_
                                           _00976_DS_
                                           ;	.line	1172; "MC32F7361.c"	key_scan();
                                           	CALL	_key_scan
                                           	GOTO	_00883_DS_
                                           ;;gen.c:6570: size=0, offset=0, AOP_TYPE(res)=8
                                           _00897_DS_
                                           ;	.line	1179; "MC32F7361.c"	color[0] = 0x00;
                                           	CLRR	(_color + 0)
                                           ;;gen.c:6570: size=0, offset=0, AOP_TYPE(res)=8
                                           ;	.line	1180; "MC32F7361.c"	color[1] = 0x00;
                                           	CLRR	(_color + 1)
                                           ;;gen.c:6570: size=0, offset=0, AOP_TYPE(res)=8
                                           ;	.line	1181; "MC32F7361.c"	color[2] = 0x00;
                                           	CLRR	(_color + 2)
                                           ;	.line	1182; "MC32F7361.c"	color_show(color); // 
                                           	MOVAI	high (_color + 0)
                                           	MOVRA	r0x1031
                                           	MOVAI	(_color + 0)
                                           	MOVRA	r0x1032
                                           	CLRR	r0x1033
                                           	MOVAR	r0x1032
                                           	MOVRA	STK01
                                           	MOVAR	r0x1031
                                           	MOVRA	STK00
                                           	MOVAI	0x00
                                           	CALL	_color_show
                                           	GOTO	_00900_DS_
                                           ;	.line	1256; "MC32F7361.c"	}
                                           	RETURN	
                                           ; exit point of _main
                                           
                                           ;***
                                           ;  pBlock Stats: dbName = C
                                           ;***
                                           ;entry:  _Sys_Init	;Function start
                                           ; 2 exit points
                                           ;has an exit
                                           ;functions called:
                                           ;   _CLR_RAM
                                           ;   _IO_Init
                                           ;   _timer0_pwm_config
                                           ;   _timer1_pwm_config
                                           ;   _timer2_pwm_config
                                           ;   _CLR_RAM
                                           ;   _IO_Init
                                           ;   _timer0_pwm_config
                                           ;   _timer1_pwm_config
                                           ;   _timer2_pwm_config
                                           ;; Starting pCode block
                                           _Sys_Init	;Function start
                                           ; 2 exit points
                                           ;	.line	1008; "MC32F7361.c"	GIE = 0;
                                           	BCLR	_MCRbits,7
                                           ;	.line	1014; "MC32F7361.c"	CLR_RAM();
                                           	CALL	_CLR_RAM
                                           ;	.line	1015; "MC32F7361.c"	IO_Init(); // 
                                           	CALL	_IO_Init
                                           ;	.line	1017; "MC32F7361.c"	timer0_pwm_config(); // PWM
                                           	CALL	_timer0_pwm_config
                                           ;	.line	1018; "MC32F7361.c"	timer1_pwm_config(); // PWM
                                           	CALL	_timer1_pwm_config
                                           ;	.line	1019; "MC32F7361.c"	timer2_pwm_config(); // PWM
                                           	CALL	_timer2_pwm_config
                                           ;	.line	1021; "MC32F7361.c"	GIE = 1;
                                           	BSET	_MCRbits,7
                                           ;	.line	1022; "MC32F7361.c"	}
                                           	RETURN	
                                           ; exit point of _Sys_Init
                                           
                                           ;***
                                           ;  pBlock Stats: dbName = C
                                           ;***
                                           ;entry:  _mode_breathing	;Function start
                                           ; 2 exit points
                                           ;has an exit
                                           ;functions called:
                                           ;   __mulchar
                                           ;   ___color_breathing
                                           ;   __mulchar
                                           ;   ___color_breathing
                                           ;7 compiler assigned registers:
                                           ;   STK00
                                           ;   r0x102C
                                           ;   r0x102D
                                           ;   r0x102E
                                           ;   r0x102F
                                           ;   r0x1030
                                           ;   STK01
                                           ;; Starting pCode block
                                           _mode_breathing	;Function start
                                           ; 2 exit points
                                           ;	.line	989; "MC32F7361.c"	__color_breathing(color_buf[cur_color_index]);
                                           	MOVAI	0x03
                                           	MOVRA	STK00
                                           	MOVAR	_cur_color_index
                                           	CALL	__mulchar
                                           	MOVRA	r0x102C
                                           	MOVAR	r0x102C
                                           	ADDAI	(_color_buf + 0)
                                           	MOVRA	r0x102C
                                           	MOVAI	high (_color_buf + 0)
                                           	JBCLR	PFLAG,0
                                           	ADDAI	0x01
                                           	MOVRA	r0x102E
                                           ;;1	MOVRA	r0x102D
                                           ;;109	MOVAR	r0x102D
                                           ;;112	MOVAR	r0x102C
                                           ;;110	MOVRA	r0x102F
                                           	MOVAI	0x80
                                           	MOVRA	r0x1030
                                           ;;111	MOVAR	r0x102F
                                           	MOVAR	r0x102C
                                           	MOVRA	STK01
                                           	MOVAR	r0x102E
                                           	MOVRA	STK00
                                           	MOVAR	r0x1030
                                           	CALL	___color_breathing
                                           ;	.line	991; "MC32F7361.c"	if (0 == SWITCH_CHANGE_FLAG)
                                           	JBCLR	_flag1,6
                                           	GOTO	_00853_DS_
                                           ;	.line	993; "MC32F7361.c"	cur_color_index++;
                                           	INCR	_cur_color_index
                                           ;	.line	994; "MC32F7361.c"	if (COLOR_NUMS == cur_color_index) // 
                                           	MOVAR	_cur_color_index
                                           	XORAI	0x0a
                                           	JBSET	PFLAG,2
                                           	GOTO	_00855_DS_
                                           ;	.line	996; "MC32F7361.c"	cur_color_index = 0;
                                           	CLRR	_cur_color_index
                                           	GOTO	_00855_DS_
                                           _00853_DS_
                                           ;	.line	1002; "MC32F7361.c"	SWITCH_CHANGE_FLAG = 0;
                                           	BCLR	_flag1,6
                                           _00855_DS_
                                           ;	.line	1004; "MC32F7361.c"	}
                                           	RETURN	
                                           ; exit point of _mode_breathing
                                           
                                           ;***
                                           ;  pBlock Stats: dbName = C
                                           ;***
                                           ;entry:  ___color_breathing	;Function start
                                           ; 2 exit points
                                           ;has an exit
                                           ;functions called:
                                           ;   __gptrget1
                                           ;   __gptrget1
                                           ;   __gptrget1
                                           ;   ___get_time_interval
                                           ;   ___get_time_interval
                                           ;   ___get_time_interval
                                           ;   _delay_ms
                                           ;   _delay_ms
                                           ;   _delay_ms
                                           ;   _color_set_component_r
                                           ;   _color_set_component_g
                                           ;   _color_set_component_b
                                           ;   _delay_ms
                                           ;   _delay_ms
                                           ;   _delay_ms
                                           ;   _delay_ms
                                           ;   ___get_time_interval
                                           ;   ___get_time_interval
                                           ;   ___get_time_interval
                                           ;   _delay_ms
                                           ;   _delay_ms
                                           ;   _delay_ms
                                           ;   _color_set_component_r
                                           ;   _color_set_component_g
                                           ;   _color_set_component_b
                                           ;   _delay_ms
                                           ;   _color_show
                                           ;   _delay_ms
                                           ;   _delay_ms
                                           ;   _delay_ms
                                           ;   _delay_ms
                                           ;   __gptrget1
                                           ;   __gptrget1
                                           ;   __gptrget1
                                           ;   ___get_time_interval
                                           ;   ___get_time_interval
                                           ;   ___get_time_interval
                                           ;   _delay_ms
                                           ;   _delay_ms
                                           ;   _delay_ms
                                           ;   _color_set_component_r
                                           ;   _color_set_component_g
                                           ;   _color_set_component_b
                                           ;   _delay_ms
                                           ;   _delay_ms
                                           ;   _delay_ms
                                           ;   _delay_ms
                                           ;   ___get_time_interval
                                           ;   ___get_time_interval
                                           ;   ___get_time_interval
                                           ;   _delay_ms
                                           ;   _delay_ms
                                           ;   _delay_ms
                                           ;   _color_set_component_r
                                           ;   _color_set_component_g
                                           ;   _color_set_component_b
                                           ;   _delay_ms
                                           ;   _color_show
                                           ;   _delay_ms
                                           ;   _delay_ms
                                           ;   _delay_ms
                                           ;   _delay_ms
                                           ;9 compiler assigned registers:
                                           ;   r0x1026
                                           ;   STK00
                                           ;   r0x1027
                                           ;   STK01
                                           ;   r0x1028
                                           ;   r0x1029
                                           ;   r0x102A
                                           ;   r0x102B
                                           ;   STK02
                                           ;; Starting pCode block
                                           ___color_breathing	;Function start
                                           ; 2 exit points
                                           ;	.line	687; "MC32F7361.c"	void __color_breathing(u8 *next_color)
                                           	MOVRA	r0x1026
                                           	MOVAR	STK00
                                           	MOVRA	r0x1027
                                           	MOVAR	STK01
                                           	MOVRA	r0x1028
                                           ;	.line	689; "MC32F7361.c"	next_r = next_color[0]; // 
                                           	MOVAR	r0x1028
                                           	MOVRA	STK01
                                           	MOVAR	r0x1027
                                           	MOVRA	STK00
                                           	MOVAR	r0x1026
                                           	CALL	__gptrget1
                                           	MOVRA	_next_r
                                           ;	.line	690; "MC32F7361.c"	next_g = next_color[1];
                                           	MOVAI	0x01
                                           	ADDAR	r0x1028
                                           	MOVRA	r0x1029
                                           	CLRR	r0x102A
                                           	RLR	r0x102A
                                           	MOVAR	r0x1027
                                           	ADDRA	r0x102A
                                           	CLRR	r0x102B
                                           	RLR	r0x102B
                                           	MOVAR	r0x1026
                                           	ADDRA	r0x102B
                                           	MOVAR	r0x1029
                                           	MOVRA	STK01
                                           	MOVAR	r0x102A
                                           	MOVRA	STK00
                                           	MOVAR	r0x102B
                                           	CALL	__gptrget1
                                           	MOVRA	_next_g
                                           ;	.line	691; "MC32F7361.c"	next_b = next_color[2];
                                           	MOVAI	0x02
                                           	ADDRA	r0x1028
                                           	JBCLR	PFLAG,0
                                           	INCR	r0x1027
                                           	JBCLR	PFLAG,2
                                           	INCR	r0x1026
                                           	MOVAR	r0x1028
                                           	MOVRA	STK01
                                           	MOVAR	r0x1027
                                           	MOVRA	STK00
                                           	MOVAR	r0x1026
                                           	CALL	__gptrget1
                                           	MOVRA	_next_b
                                           ;	.line	693; "MC32F7361.c"	tmp_r = 0; // RGB
                                           	CLRR	_tmp_r
                                           	CLRR	(_tmp_r + 1)
                                           ;	.line	694; "MC32F7361.c"	tmp_g = 0;
                                           	CLRR	_tmp_g
                                           	CLRR	(_tmp_g + 1)
                                           ;	.line	695; "MC32F7361.c"	tmp_b = 0;
                                           	CLRR	_tmp_b
                                           	CLRR	(_tmp_b + 1)
                                           ;	.line	697; "MC32F7361.c"	cur_r = 0; // 0
                                           	CLRR	_cur_r
                                           ;	.line	698; "MC32F7361.c"	cur_g = 0;
                                           	CLRR	_cur_g
                                           ;	.line	699; "MC32F7361.c"	cur_b = 0;
                                           	CLRR	_cur_b
                                           ;	.line	701; "MC32F7361.c"	time_interval_r = __get_time_interval(1, next_r); // PWM
                                           	MOVAR	_next_r
                                           	MOVRA	STK00
                                           	MOVAI	0x01
                                           	CALL	___get_time_interval
                                           	MOVRA	(_time_interval_r + 1)
                                           	MOVAR	STK00
                                           	MOVRA	_time_interval_r
                                           ;	.line	702; "MC32F7361.c"	time_interval_g = __get_time_interval(1, next_g);
                                           	MOVAR	_next_g
                                           	MOVRA	STK00
                                           	MOVAI	0x01
                                           	CALL	___get_time_interval
                                           	MOVRA	(_time_interval_g + 1)
                                           	MOVAR	STK00
                                           	MOVRA	_time_interval_g
                                           ;	.line	703; "MC32F7361.c"	time_interval_b = __get_time_interval(1, next_b);
                                           	MOVAR	_next_b
                                           	MOVRA	STK00
                                           	MOVAI	0x01
                                           	CALL	___get_time_interval
                                           	MOVRA	(_time_interval_b + 1)
                                           	MOVAR	STK00
                                           	MOVRA	_time_interval_b
                                           ;	.line	706; "MC32F7361.c"	for (i = 0; i < BREATHING_LIGHT_ON_TIME; i++)
                                           	CLRR	_i
                                           	CLRR	(_i + 1)
                                           _00591_DS_
                                           ;	.line	712; "MC32F7361.c"	tmp_r += 100;
                                           	MOVAI	0x64
                                           	ADDRA	_tmp_r
                                           	JBCLR	PFLAG,0
                                           	INCR	(_tmp_r + 1)
                                           ;	.line	713; "MC32F7361.c"	tmp_g += 100;
                                           	MOVAI	0x64
                                           	ADDRA	_tmp_g
                                           	JBCLR	PFLAG,0
                                           	INCR	(_tmp_g + 1)
                                           ;	.line	714; "MC32F7361.c"	tmp_b += 100;
                                           	MOVAI	0x64
                                           	ADDRA	_tmp_b
                                           	JBCLR	PFLAG,0
                                           	INCR	(_tmp_b + 1)
                                           ;	.line	716; "MC32F7361.c"	if (KEY_2_3_PIN == 0)
                                           	JBCLR	_IOP1bits,2
                                           	GOTO	_00505_DS_
                                           ;	.line	719; "MC32F7361.c"	delay_ms(10);
                                           	MOVAI	0x0a
                                           	MOVRA	STK02
                                           	MOVAI	0x00
                                           	MOVRA	STK01
                                           	MOVAI	0x00
                                           	MOVRA	STK00
                                           	MOVAI	0x00
                                           	CALL	_delay_ms
                                           ;	.line	720; "MC32F7361.c"	if (KEY_2_3_PIN == 0)
                                           	JBCLR	_IOP1bits,2
                                           	GOTO	_00506_DS_
                                           ;	.line	722; "MC32F7361.c"	right_key_val = RIGHT_KEY_UP;
                                           	MOVAI	0x04
                                           	MOVRA	_right_key_val
                                           ;	.line	723; "MC32F7361.c"	return;
                                           	GOTO	_00599_DS_
                                           _00505_DS_
                                           ;	.line	726; "MC32F7361.c"	else if (0 == KEY_1_1_PIN)
                                           	JBCLR	_IOP0bits,1
                                           	GOTO	_00502_DS_
                                           ;	.line	728; "MC32F7361.c"	delay_ms(10);
                                           	MOVAI	0x0a
                                           	MOVRA	STK02
                                           	MOVAI	0x00
                                           	MOVRA	STK01
                                           	MOVAI	0x00
                                           	MOVRA	STK00
                                           	MOVAI	0x00
                                           	CALL	_delay_ms
                                           ;	.line	729; "MC32F7361.c"	if (0 == KEY_1_1_PIN)
                                           	JBCLR	_IOP0bits,1
                                           	GOTO	_00506_DS_
                                           ;	.line	731; "MC32F7361.c"	left_key_val = LEFT_EY_UP;
                                           	MOVAI	0x01
                                           	MOVRA	_left_key_val
                                           ;	.line	733; "MC32F7361.c"	return;
                                           	GOTO	_00599_DS_
                                           _00502_DS_
                                           ;	.line	736; "MC32F7361.c"	else if ((0 == KEY_2_2_PIN) && (0 == LIGHT_SENSOR_PIN) &&
                                           	JBCLR	_IOP1bits,3
                                           	GOTO	_00506_DS_
                                           	JBCLR	_IOP1bits,1
                                           	GOTO	_00506_DS_
                                           ;	.line	737; "MC32F7361.c"	(0 == SWITCH_CHANGE_FLAG))
                                           	JBCLR	_flag1,6
                                           	GOTO	_00506_DS_
                                           ;	.line	740; "MC32F7361.c"	delay_ms(10);
                                           	MOVAI	0x0a
                                           	MOVRA	STK02
                                           	MOVAI	0x00
                                           	MOVRA	STK01
                                           	MOVAI	0x00
                                           	MOVRA	STK00
                                           	MOVAI	0x00
                                           	CALL	_delay_ms
                                           ;	.line	741; "MC32F7361.c"	if (0 == KEY_2_2_PIN && 0 == LIGHT_SENSOR_PIN)
                                           	JBCLR	_IOP1bits,3
                                           	GOTO	_00506_DS_
                                           	JBCLR	_IOP1bits,1
                                           	GOTO	_00506_DS_
                                           ;	.line	744; "MC32F7361.c"	RGB_ENABLE = 0; // 
                                           	BCLR	_flag1,3
                                           ;	.line	745; "MC32F7361.c"	SWITCH_CHANGE_FLAG = 1;
                                           	BSET	_flag1,6
                                           ;	.line	746; "MC32F7361.c"	return;
                                           	GOTO	_00599_DS_
                                           _00506_DS_
                                           ;	.line	751; "MC32F7361.c"	if (cur_r < next_r && tmp_r >= time_interval_r)
                                           	MOVAR	_next_r
                                           	RSUBAR	_cur_r
                                           	JBCLR	PFLAG,0
                                           	GOTO	_00508_DS_
                                           ;;genSkipc:3291: created from rifx:013B5EFC
                                           	MOVAR	(_time_interval_r + 1)
                                           	RSUBAR	(_tmp_r + 1)
                                           	JBSET	PFLAG,2
                                           	GOTO	_00834_DS_
                                           	MOVAR	_time_interval_r
                                           	RSUBAR	_tmp_r
                                           _00834_DS_
                                           	JBSET	PFLAG,0
                                           	GOTO	_00508_DS_
                                           ;;genSkipc:3291: created from rifx:013B5EFC
                                           ;	.line	754; "MC32F7361.c"	tmp_r = 0;
                                           	CLRR	_tmp_r
                                           	CLRR	(_tmp_r + 1)
                                           ;	.line	755; "MC32F7361.c"	cur_r++;
                                           	INCR	_cur_r
                                           ;	.line	756; "MC32F7361.c"	color_set_component_r(cur_r);
                                           	MOVAR	_cur_r
                                           	CALL	_color_set_component_r
                                           _00508_DS_
                                           ;	.line	760; "MC32F7361.c"	if (cur_g < next_g && tmp_g >= time_interval_g)
                                           	MOVAR	_next_g
                                           	RSUBAR	_cur_g
                                           	JBCLR	PFLAG,0
                                           	GOTO	_00511_DS_
                                           ;;genSkipc:3291: created from rifx:013B5EFC
                                           	MOVAR	(_time_interval_g + 1)
                                           	RSUBAR	(_tmp_g + 1)
                                           	JBSET	PFLAG,2
                                           	GOTO	_00836_DS_
                                           	MOVAR	_time_interval_g
                                           	RSUBAR	_tmp_g
                                           _00836_DS_
                                           	JBSET	PFLAG,0
                                           	GOTO	_00511_DS_
                                           ;;genSkipc:3291: created from rifx:013B5EFC
                                           ;	.line	763; "MC32F7361.c"	tmp_g = 0;
                                           	CLRR	_tmp_g
                                           	CLRR	(_tmp_g + 1)
                                           ;	.line	764; "MC32F7361.c"	cur_g++;
                                           	INCR	_cur_g
                                           ;	.line	765; "MC32F7361.c"	color_set_component_g(cur_g);
                                           	MOVAR	_cur_g
                                           	CALL	_color_set_component_g
                                           _00511_DS_
                                           ;	.line	769; "MC32F7361.c"	if (cur_b < next_b && tmp_b >= time_interval_b)
                                           	MOVAR	_next_b
                                           	RSUBAR	_cur_b
                                           	JBCLR	PFLAG,0
                                           	GOTO	_00514_DS_
                                           ;;genSkipc:3291: created from rifx:013B5EFC
                                           	MOVAR	(_time_interval_b + 1)
                                           	RSUBAR	(_tmp_b + 1)
                                           	JBSET	PFLAG,2
                                           	GOTO	_00838_DS_
                                           	MOVAR	_time_interval_b
                                           	RSUBAR	_tmp_b
                                           _00838_DS_
                                           	JBSET	PFLAG,0
                                           	GOTO	_00514_DS_
                                           ;;genSkipc:3291: created from rifx:013B5EFC
                                           ;	.line	772; "MC32F7361.c"	tmp_b = 0;
                                           	CLRR	_tmp_b
                                           	CLRR	(_tmp_b + 1)
                                           ;	.line	773; "MC32F7361.c"	cur_b++;
                                           	INCR	_cur_b
                                           ;	.line	774; "MC32F7361.c"	color_set_component_b(cur_b);
                                           	MOVAR	_cur_b
                                           	CALL	_color_set_component_b
                                           _00514_DS_
                                           ;	.line	780; "MC32F7361.c"	delay_ms(1);
                                           	MOVAI	0x01
                                           	MOVRA	STK02
                                           	MOVAI	0x00
                                           	MOVRA	STK01
                                           	MOVAI	0x00
                                           	MOVRA	STK00
                                           	MOVAI	0x00
                                           	CALL	_delay_ms
                                           ;	.line	706; "MC32F7361.c"	for (i = 0; i < BREATHING_LIGHT_ON_TIME; i++)
                                           	INCR	_i
                                           	JBCLR	PFLAG,2
                                           	INCR	(_i + 1)
                                           ;;unsigned compare: left < lit(0x352=850), size=2
                                           	MOVAI	0x03
                                           	RSUBAR	(_i + 1)
                                           	JBSET	PFLAG,2
                                           	GOTO	_00839_DS_
                                           	MOVAI	0x52
                                           	RSUBAR	_i
                                           _00839_DS_
                                           	JBSET	PFLAG,0
                                           	GOTO	_00591_DS_
                                           ;;genSkipc:3291: created from rifx:013B5EFC
                                           ;	.line	788; "MC32F7361.c"	for (i = 0; i < 500; i++) // 500ms
                                           	CLRR	_i
                                           	CLRR	(_i + 1)
                                           _00593_DS_
                                           ;	.line	790; "MC32F7361.c"	if (KEY_2_3_PIN == 0)
                                           	JBCLR	_IOP1bits,2
                                           	GOTO	_00528_DS_
                                           ;	.line	792; "MC32F7361.c"	delay_ms(10);
                                           	MOVAI	0x0a
                                           	MOVRA	STK02
                                           	MOVAI	0x00
                                           	MOVRA	STK01
                                           	MOVAI	0x00
                                           	MOVRA	STK00
                                           	MOVAI	0x00
                                           	CALL	_delay_ms
                                           ;	.line	796; "MC32F7361.c"	if (KEY_2_3_PIN == 0)
                                           	JBCLR	_IOP1bits,2
                                           	GOTO	_00525_DS_
                                           ;	.line	798; "MC32F7361.c"	right_key_val = RIGHT_KEY_UP;
                                           	MOVAI	0x04
                                           	MOVRA	_right_key_val
                                           ;	.line	800; "MC32F7361.c"	return;
                                           	GOTO	_00599_DS_
                                           _00525_DS_
                                           ;	.line	802; "MC32F7361.c"	else if ((0 == KEY_2_2_PIN) && (0 == LIGHT_SENSOR_PIN) &&
                                           	JBCLR	_IOP1bits,3
                                           	GOTO	_00528_DS_
                                           	JBCLR	_IOP1bits,1
                                           	GOTO	_00528_DS_
                                           ;	.line	803; "MC32F7361.c"	(0 == SWITCH_CHANGE_FLAG))
                                           	JBCLR	_flag1,6
                                           	GOTO	_00528_DS_
                                           ;	.line	806; "MC32F7361.c"	delay_ms(10);
                                           	MOVAI	0x0a
                                           	MOVRA	STK02
                                           	MOVAI	0x00
                                           	MOVRA	STK01
                                           	MOVAI	0x00
                                           	MOVRA	STK00
                                           	MOVAI	0x00
                                           	CALL	_delay_ms
                                           ;	.line	807; "MC32F7361.c"	if ((0 == KEY_2_2_PIN) && (0 == LIGHT_SENSOR_PIN))
                                           	JBCLR	_IOP1bits,3
                                           	GOTO	_00528_DS_
                                           	JBCLR	_IOP1bits,1
                                           	GOTO	_00528_DS_
                                           ;	.line	810; "MC32F7361.c"	RGB_ENABLE = 0; // 
                                           	BCLR	_flag1,3
                                           ;	.line	811; "MC32F7361.c"	SWITCH_CHANGE_FLAG = 1;
                                           	BSET	_flag1,6
                                           ;	.line	812; "MC32F7361.c"	return;
                                           	GOTO	_00599_DS_
                                           _00528_DS_
                                           ;	.line	817; "MC32F7361.c"	delay_ms(1);
                                           	MOVAI	0x01
                                           	MOVRA	STK02
                                           	MOVAI	0x00
                                           	MOVRA	STK01
                                           	MOVAI	0x00
                                           	MOVRA	STK00
                                           	MOVAI	0x00
                                           	CALL	_delay_ms
                                           ;	.line	788; "MC32F7361.c"	for (i = 0; i < 500; i++) // 500ms
                                           	INCR	_i
                                           	JBCLR	PFLAG,2
                                           	INCR	(_i + 1)
                                           ;;unsigned compare: left < lit(0x1F4=500), size=2
                                           	MOVAI	0x01
                                           	RSUBAR	(_i + 1)
                                           	JBSET	PFLAG,2
                                           	GOTO	_00840_DS_
                                           	MOVAI	0xf4
                                           	RSUBAR	_i
                                           _00840_DS_
                                           	JBSET	PFLAG,0
                                           	GOTO	_00593_DS_
                                           ;;genSkipc:3291: created from rifx:013B5EFC
                                           ;	.line	822; "MC32F7361.c"	tmp_r = 0;
                                           	CLRR	_tmp_r
                                           	CLRR	(_tmp_r + 1)
                                           ;	.line	823; "MC32F7361.c"	tmp_g = 0;
                                           	CLRR	_tmp_g
                                           	CLRR	(_tmp_g + 1)
                                           ;	.line	824; "MC32F7361.c"	tmp_b = 0;
                                           	CLRR	_tmp_b
                                           	CLRR	(_tmp_b + 1)
                                           ;	.line	826; "MC32F7361.c"	time_interval_r = __get_time_interval(0, next_r); // PWM
                                           	MOVAR	_next_r
                                           	MOVRA	STK00
                                           	MOVAI	0x00
                                           	CALL	___get_time_interval
                                           	MOVRA	(_time_interval_r + 1)
                                           	MOVAR	STK00
                                           	MOVRA	_time_interval_r
                                           ;	.line	827; "MC32F7361.c"	time_interval_g = __get_time_interval(0, next_g);
                                           	MOVAR	_next_g
                                           	MOVRA	STK00
                                           	MOVAI	0x00
                                           	CALL	___get_time_interval
                                           	MOVRA	(_time_interval_g + 1)
                                           	MOVAR	STK00
                                           	MOVRA	_time_interval_g
                                           ;	.line	828; "MC32F7361.c"	time_interval_b = __get_time_interval(0, next_b);
                                           	MOVAR	_next_b
                                           	MOVRA	STK00
                                           	MOVAI	0x00
                                           	CALL	___get_time_interval
                                           	MOVRA	(_time_interval_b + 1)
                                           	MOVAR	STK00
                                           	MOVRA	_time_interval_b
                                           ;	.line	830; "MC32F7361.c"	if (0 == time_interval_r)
                                           	MOVAR	_time_interval_r
                                           	ORAR	(_time_interval_r + 1)
                                           	JBSET	PFLAG,2
                                           	GOTO	_00531_DS_
                                           ;	.line	832; "MC32F7361.c"	BREATHING_BREAK_R = 0;
                                           	BCLR	_flag2,0
                                           	GOTO	_00532_DS_
                                           _00531_DS_
                                           ;	.line	836; "MC32F7361.c"	BREATHING_BREAK_R = 1;
                                           	BSET	_flag2,0
                                           _00532_DS_
                                           ;	.line	839; "MC32F7361.c"	if (0 == time_interval_g)
                                           	MOVAR	_time_interval_g
                                           	ORAR	(_time_interval_g + 1)
                                           	JBSET	PFLAG,2
                                           	GOTO	_00534_DS_
                                           ;	.line	841; "MC32F7361.c"	BREATHING_BREAK_G = 0;
                                           	BCLR	_flag2,1
                                           	GOTO	_00535_DS_
                                           _00534_DS_
                                           ;	.line	845; "MC32F7361.c"	BREATHING_BREAK_G = 1;
                                           	BSET	_flag2,1
                                           _00535_DS_
                                           ;	.line	848; "MC32F7361.c"	if (0 == time_interval_b)
                                           	MOVAR	_time_interval_b
                                           	ORAR	(_time_interval_b + 1)
                                           	JBSET	PFLAG,2
                                           	GOTO	_00537_DS_
                                           ;	.line	850; "MC32F7361.c"	BREATHING_BREAK_B = 0;
                                           	BCLR	_flag2,2
                                           	GOTO	_00538_DS_
                                           _00537_DS_
                                           ;	.line	854; "MC32F7361.c"	BREATHING_BREAK_B = 1;
                                           	BSET	_flag2,2
                                           _00538_DS_
                                           ;	.line	857; "MC32F7361.c"	for (i = 0; i < BREATHING_LIGHT_OFF_TIME; i++)
                                           	CLRR	_i
                                           	CLRR	(_i + 1)
                                           _00595_DS_
                                           ;	.line	859; "MC32F7361.c"	if (KEY_2_3_PIN == 0) // 450ms
                                           	JBCLR	_IOP1bits,2
                                           	GOTO	_00554_DS_
                                           ;	.line	861; "MC32F7361.c"	delay_ms(10);
                                           	MOVAI	0x0a
                                           	MOVRA	STK02
                                           	MOVAI	0x00
                                           	MOVRA	STK01
                                           	MOVAI	0x00
                                           	MOVRA	STK00
                                           	MOVAI	0x00
                                           	CALL	_delay_ms
                                           ;	.line	862; "MC32F7361.c"	if (KEY_2_3_PIN == 0)
                                           	JBCLR	_IOP1bits,2
                                           	GOTO	_00555_DS_
                                           ;	.line	864; "MC32F7361.c"	right_key_val = RIGHT_KEY_UP;
                                           	MOVAI	0x04
                                           	MOVRA	_right_key_val
                                           ;	.line	866; "MC32F7361.c"	return;
                                           	GOTO	_00599_DS_
                                           _00554_DS_
                                           ;	.line	869; "MC32F7361.c"	else if (0 == KEY_1_1_PIN)
                                           	JBCLR	_IOP0bits,1
                                           	GOTO	_00551_DS_
                                           ;	.line	871; "MC32F7361.c"	delay_ms(10);
                                           	MOVAI	0x0a
                                           	MOVRA	STK02
                                           	MOVAI	0x00
                                           	MOVRA	STK01
                                           	MOVAI	0x00
                                           	MOVRA	STK00
                                           	MOVAI	0x00
                                           	CALL	_delay_ms
                                           ;	.line	872; "MC32F7361.c"	if (0 == KEY_1_1_PIN)
                                           	JBCLR	_IOP0bits,1
                                           	GOTO	_00555_DS_
                                           ;	.line	874; "MC32F7361.c"	left_key_val = LEFT_EY_UP;
                                           	MOVAI	0x01
                                           	MOVRA	_left_key_val
                                           ;	.line	876; "MC32F7361.c"	return;
                                           	GOTO	_00599_DS_
                                           _00551_DS_
                                           ;	.line	879; "MC32F7361.c"	else if ((0 == KEY_2_2_PIN) && (0 == LIGHT_SENSOR_PIN) &&
                                           	JBCLR	_IOP1bits,3
                                           	GOTO	_00555_DS_
                                           	JBCLR	_IOP1bits,1
                                           	GOTO	_00555_DS_
                                           ;	.line	880; "MC32F7361.c"	(0 == SWITCH_CHANGE_FLAG))
                                           	JBCLR	_flag1,6
                                           	GOTO	_00555_DS_
                                           ;	.line	883; "MC32F7361.c"	delay_ms(10);
                                           	MOVAI	0x0a
                                           	MOVRA	STK02
                                           	MOVAI	0x00
                                           	MOVRA	STK01
                                           	MOVAI	0x00
                                           	MOVRA	STK00
                                           	MOVAI	0x00
                                           	CALL	_delay_ms
                                           ;	.line	884; "MC32F7361.c"	if ((0 == KEY_2_2_PIN) && (0 == LIGHT_SENSOR_PIN))
                                           	JBCLR	_IOP1bits,3
                                           	GOTO	_00555_DS_
                                           	JBCLR	_IOP1bits,1
                                           	GOTO	_00555_DS_
                                           ;	.line	887; "MC32F7361.c"	RGB_ENABLE = 0; // 
                                           	BCLR	_flag1,3
                                           ;	.line	888; "MC32F7361.c"	SWITCH_CHANGE_FLAG = 1;
                                           	BSET	_flag1,6
                                           ;	.line	889; "MC32F7361.c"	return;
                                           	GOTO	_00599_DS_
                                           _00555_DS_
                                           ;	.line	896; "MC32F7361.c"	tmp_r += 100;
                                           	MOVAI	0x64
                                           	ADDRA	_tmp_r
                                           	JBCLR	PFLAG,0
                                           	INCR	(_tmp_r + 1)
                                           ;	.line	897; "MC32F7361.c"	tmp_g += 100;
                                           	MOVAI	0x64
                                           	ADDRA	_tmp_g
                                           	JBCLR	PFLAG,0
                                           	INCR	(_tmp_g + 1)
                                           ;	.line	898; "MC32F7361.c"	tmp_b += 100;
                                           	MOVAI	0x64
                                           	ADDRA	_tmp_b
                                           	JBCLR	PFLAG,0
                                           	INCR	(_tmp_b + 1)
                                           ;	.line	901; "MC32F7361.c"	if (cur_r > 0 && tmp_r >= time_interval_r)
                                           	MOVAI	0x00
                                           	ORAR	_cur_r
                                           	JBCLR	PFLAG,2
                                           	GOTO	_00557_DS_
                                           	MOVAR	(_time_interval_r + 1)
                                           	RSUBAR	(_tmp_r + 1)
                                           	JBSET	PFLAG,2
                                           	GOTO	_00841_DS_
                                           	MOVAR	_time_interval_r
                                           	RSUBAR	_tmp_r
                                           _00841_DS_
                                           	JBSET	PFLAG,0
                                           	GOTO	_00557_DS_
                                           ;;genSkipc:3291: created from rifx:013B5EFC
                                           ;	.line	904; "MC32F7361.c"	tmp_r = 0;
                                           	CLRR	_tmp_r
                                           	CLRR	(_tmp_r + 1)
                                           ;	.line	905; "MC32F7361.c"	cur_r--;
                                           	DECR	_cur_r
                                           ;	.line	906; "MC32F7361.c"	color_set_component_r(cur_r);
                                           	MOVAR	_cur_r
                                           	CALL	_color_set_component_r
                                           _00557_DS_
                                           ;	.line	909; "MC32F7361.c"	if (cur_g > 0 && tmp_g >= time_interval_g)
                                           	MOVAI	0x00
                                           	ORAR	_cur_g
                                           	JBCLR	PFLAG,2
                                           	GOTO	_00560_DS_
                                           	MOVAR	(_time_interval_g + 1)
                                           	RSUBAR	(_tmp_g + 1)
                                           	JBSET	PFLAG,2
                                           	GOTO	_00842_DS_
                                           	MOVAR	_time_interval_g
                                           	RSUBAR	_tmp_g
                                           _00842_DS_
                                           	JBSET	PFLAG,0
                                           	GOTO	_00560_DS_
                                           ;;genSkipc:3291: created from rifx:013B5EFC
                                           ;	.line	912; "MC32F7361.c"	tmp_g = 0;
                                           	CLRR	_tmp_g
                                           	CLRR	(_tmp_g + 1)
                                           ;	.line	913; "MC32F7361.c"	cur_g--;
                                           	DECR	_cur_g
                                           ;	.line	914; "MC32F7361.c"	color_set_component_g(cur_g);
                                           	MOVAR	_cur_g
                                           	CALL	_color_set_component_g
                                           _00560_DS_
                                           ;	.line	917; "MC32F7361.c"	if (cur_b > 0 && tmp_b >= time_interval_b)
                                           	MOVAI	0x00
                                           	ORAR	_cur_b
                                           	JBCLR	PFLAG,2
                                           	GOTO	_00563_DS_
                                           	MOVAR	(_time_interval_b + 1)
                                           	RSUBAR	(_tmp_b + 1)
                                           	JBSET	PFLAG,2
                                           	GOTO	_00843_DS_
                                           	MOVAR	_time_interval_b
                                           	RSUBAR	_tmp_b
                                           _00843_DS_
                                           	JBSET	PFLAG,0
                                           	GOTO	_00563_DS_
                                           ;;genSkipc:3291: created from rifx:013B5EFC
                                           ;	.line	920; "MC32F7361.c"	tmp_b = 0;
                                           	CLRR	_tmp_b
                                           	CLRR	(_tmp_b + 1)
                                           ;	.line	921; "MC32F7361.c"	cur_b--;
                                           	DECR	_cur_b
                                           ;	.line	922; "MC32F7361.c"	color_set_component_b(cur_b);
                                           	MOVAR	_cur_b
                                           	CALL	_color_set_component_b
                                           _00563_DS_
                                           ;	.line	928; "MC32F7361.c"	if ((BREATHING_BREAK_R && 0 == cur_r) ||
                                           	JBSET	_flag2,0
                                           	GOTO	_00569_DS_
                                           	MOVAI	0x00
                                           	ORAR	_cur_r
                                           	JBCLR	PFLAG,2
                                           	GOTO	_00572_DS_
                                           _00569_DS_
                                           ;	.line	929; "MC32F7361.c"	(BREATHING_BREAK_G && 0 == cur_g) ||
                                           	JBSET	_flag2,1
                                           	GOTO	_00571_DS_
                                           	MOVAI	0x00
                                           	ORAR	_cur_g
                                           	JBCLR	PFLAG,2
                                           	GOTO	_00572_DS_
                                           _00571_DS_
                                           ;	.line	930; "MC32F7361.c"	(BREATHING_BREAK_B && 0 == cur_b))
                                           	JBSET	_flag2,2
                                           	GOTO	_00566_DS_
                                           	MOVAI	0x00
                                           	ORAR	_cur_b
                                           	JBCLR	PFLAG,2
                                           	GOTO	_00572_DS_
                                           _00566_DS_
                                           ;	.line	937; "MC32F7361.c"	delay_ms(1);
                                           	MOVAI	0x01
                                           	MOVRA	STK02
                                           	MOVAI	0x00
                                           	MOVRA	STK01
                                           	MOVAI	0x00
                                           	MOVRA	STK00
                                           	MOVAI	0x00
                                           	CALL	_delay_ms
                                           ;	.line	857; "MC32F7361.c"	for (i = 0; i < BREATHING_LIGHT_OFF_TIME; i++)
                                           	INCR	_i
                                           	JBCLR	PFLAG,2
                                           	INCR	(_i + 1)
                                           ;;unsigned compare: left < lit(0x1C2=450), size=2
                                           	MOVAI	0x01
                                           	RSUBAR	(_i + 1)
                                           	JBSET	PFLAG,2
                                           	GOTO	_00844_DS_
                                           	MOVAI	0xc2
                                           	RSUBAR	_i
                                           _00844_DS_
                                           	JBSET	PFLAG,0
                                           	GOTO	_00595_DS_
                                           ;;genSkipc:3291: created from rifx:013B5EFC
                                           ;;gen.c:6570: size=0, offset=0, AOP_TYPE(res)=8
                                           _00572_DS_
                                           ;	.line	941; "MC32F7361.c"	color[0] = 0x00;
                                           	CLRR	(_color + 0)
                                           ;;gen.c:6570: size=0, offset=0, AOP_TYPE(res)=8
                                           ;	.line	942; "MC32F7361.c"	color[1] = 0x00;
                                           	CLRR	(_color + 1)
                                           ;;gen.c:6570: size=0, offset=0, AOP_TYPE(res)=8
                                           ;	.line	943; "MC32F7361.c"	color[2] = 0x00;
                                           	CLRR	(_color + 2)
                                           ;	.line	944; "MC32F7361.c"	color_show(color); // 
                                           	MOVAI	high (_color + 0)
                                           	MOVRA	r0x1027
                                           	MOVAI	(_color + 0)
                                           	MOVRA	r0x1028
                                           	CLRR	r0x1026
                                           	MOVAR	r0x1028
                                           	MOVRA	STK01
                                           	MOVAR	r0x1027
                                           	MOVRA	STK00
                                           	MOVAI	0x00
                                           	CALL	_color_show
                                           ;	.line	947; "MC32F7361.c"	for (i = 0; i < 50; i++)
                                           	CLRR	_i
                                           	CLRR	(_i + 1)
                                           _00597_DS_
                                           ;	.line	949; "MC32F7361.c"	if (KEY_2_3_PIN == 0)
                                           	JBCLR	_IOP1bits,2
                                           	GOTO	_00588_DS_
                                           ;	.line	951; "MC32F7361.c"	delay_ms(10);
                                           	MOVAI	0x0a
                                           	MOVRA	STK02
                                           	MOVAI	0x00
                                           	MOVRA	STK01
                                           	MOVAI	0x00
                                           	MOVRA	STK00
                                           	MOVAI	0x00
                                           	CALL	_delay_ms
                                           ;	.line	952; "MC32F7361.c"	if (KEY_2_3_PIN == 0)
                                           	JBCLR	_IOP1bits,2
                                           	GOTO	_00589_DS_
                                           ;	.line	954; "MC32F7361.c"	right_key_val = RIGHT_KEY_UP;
                                           	MOVAI	0x04
                                           	MOVRA	_right_key_val
                                           ;	.line	956; "MC32F7361.c"	return;
                                           	GOTO	_00599_DS_
                                           _00588_DS_
                                           ;	.line	959; "MC32F7361.c"	else if (0 == KEY_1_1_PIN)
                                           	JBCLR	_IOP0bits,1
                                           	GOTO	_00585_DS_
                                           ;	.line	961; "MC32F7361.c"	delay_ms(10);
                                           	MOVAI	0x0a
                                           	MOVRA	STK02
                                           	MOVAI	0x00
                                           	MOVRA	STK01
                                           	MOVAI	0x00
                                           	MOVRA	STK00
                                           	MOVAI	0x00
                                           	CALL	_delay_ms
                                           ;	.line	962; "MC32F7361.c"	if (0 == KEY_1_1_PIN)
                                           	JBCLR	_IOP0bits,1
                                           	GOTO	_00589_DS_
                                           ;	.line	964; "MC32F7361.c"	left_key_val = LEFT_EY_UP;
                                           	MOVAI	0x01
                                           	MOVRA	_left_key_val
                                           ;	.line	966; "MC32F7361.c"	return;
                                           	GOTO	_00599_DS_
                                           _00585_DS_
                                           ;	.line	969; "MC32F7361.c"	else if ((0 == KEY_2_2_PIN) && (0 == LIGHT_SENSOR_PIN) &&
                                           	JBCLR	_IOP1bits,3
                                           	GOTO	_00589_DS_
                                           	JBCLR	_IOP1bits,1
                                           	GOTO	_00589_DS_
                                           ;	.line	970; "MC32F7361.c"	(0 == SWITCH_CHANGE_FLAG))
                                           	JBCLR	_flag1,6
                                           	GOTO	_00589_DS_
                                           ;	.line	973; "MC32F7361.c"	delay_ms(10);
                                           	MOVAI	0x0a
                                           	MOVRA	STK02
                                           	MOVAI	0x00
                                           	MOVRA	STK01
                                           	MOVAI	0x00
                                           	MOVRA	STK00
                                           	MOVAI	0x00
                                           	CALL	_delay_ms
                                           ;	.line	974; "MC32F7361.c"	if ((0 == KEY_2_2_PIN) && (0 == LIGHT_SENSOR_PIN))
                                           	JBCLR	_IOP1bits,3
                                           	GOTO	_00589_DS_
                                           	JBCLR	_IOP1bits,1
                                           	GOTO	_00589_DS_
                                           ;	.line	977; "MC32F7361.c"	RGB_ENABLE = 0; // 
                                           	BCLR	_flag1,3
                                           ;	.line	978; "MC32F7361.c"	SWITCH_CHANGE_FLAG = 1;
                                           	BSET	_flag1,6
                                           ;	.line	979; "MC32F7361.c"	return;
                                           	GOTO	_00599_DS_
                                           _00589_DS_
                                           ;	.line	982; "MC32F7361.c"	delay_ms(1);
                                           	MOVAI	0x01
                                           	MOVRA	STK02
                                           	MOVAI	0x00
                                           	MOVRA	STK01
                                           	MOVAI	0x00
                                           	MOVRA	STK00
                                           	MOVAI	0x00
                                           	CALL	_delay_ms
                                           ;	.line	947; "MC32F7361.c"	for (i = 0; i < 50; i++)
                                           	INCR	_i
                                           	JBCLR	PFLAG,2
                                           	INCR	(_i + 1)
                                           ;;unsigned compare: left < lit(0x32=50), size=2
                                           	MOVAI	0x00
                                           	RSUBAR	(_i + 1)
                                           	JBSET	PFLAG,2
                                           	GOTO	_00845_DS_
                                           	MOVAI	0x32
                                           	RSUBAR	_i
                                           _00845_DS_
                                           	JBSET	PFLAG,0
                                           	GOTO	_00597_DS_
                                           ;;genSkipc:3291: created from rifx:013B5EFC
                                           _00599_DS_
                                           ;	.line	984; "MC32F7361.c"	}
                                           	RETURN	
                                           ; exit point of ___color_breathing
                                           
                                           ;***
                                           ;  pBlock Stats: dbName = C
                                           ;***
                                           ;entry:  ___get_time_interval	;Function start
                                           ; 2 exit points
                                           ;has an exit
                                           ;functions called:
                                           ;   __divulong
                                           ;   __divulong
                                           ;   __divulong
                                           ;   __divulong
                                           ;14 compiler assigned registers:
                                           ;   r0x101D
                                           ;   STK00
                                           ;   r0x101E
                                           ;   r0x101F
                                           ;   r0x1020
                                           ;   r0x1021
                                           ;   STK06
                                           ;   STK05
                                           ;   STK04
                                           ;   STK03
                                           ;   STK02
                                           ;   STK01
                                           ;   r0x1022
                                           ;   r0x1023
                                           ;; Starting pCode block
                                           ___get_time_interval	;Function start
                                           ; 2 exit points
                                           ;	.line	648; "MC32F7361.c"	u16 __get_time_interval(u8 light_on_off, u8 color_component)
                                           	MOVRA	r0x101D
                                           	MOVAR	STK00
                                           	MOVRA	r0x101E
                                           ;	.line	651; "MC32F7361.c"	if (0 == color_component)
                                           	MOVAI	0x00
                                           	ORAR	r0x101E
                                           	JBSET	PFLAG,2
                                           	GOTO	_00481_DS_
                                           ;	.line	653; "MC32F7361.c"	return 0; // 00
                                           	MOVAI	0x00
                                           	MOVRA	STK00
                                           	MOVAI	0x00
                                           	GOTO	_00485_DS_
                                           _00481_DS_
                                           ;	.line	656; "MC32F7361.c"	if (light_on_off)
                                           	MOVAI	0x00
                                           	ORAR	r0x101D
                                           	JBCLR	PFLAG,2
                                           	GOTO	_00483_DS_
                                           ;;125	MOVAR	r0x101E
                                           ;	.line	659; "MC32F7361.c"	return (u32)BREATHING_LIGHT_ON_TIME * 100 / color_component;
                                           	CLRR	r0x101F
                                           	CLRR	r0x1020
                                           	CLRR	r0x1021
                                           ;;124	MOVAR	r0x101D
                                           	MOVAR	r0x101E
                                           	MOVRA	r0x101D
                                           	MOVRA	STK06
                                           	MOVAI	0x00
                                           	MOVRA	STK05
                                           	MOVAI	0x00
                                           	MOVRA	STK04
                                           	MOVAI	0x00
                                           	MOVRA	STK03
                                           	MOVAI	0x08
                                           	MOVRA	STK02
                                           	MOVAI	0x4c
                                           	MOVRA	STK01
                                           	MOVAI	0x01
                                           	MOVRA	STK00
                                           	MOVAI	0x00
                                           	CALL	__divulong
                                           	MOVRA	r0x1021
                                           	MOVAR	STK00
                                           	MOVRA	r0x1020
                                           	MOVAR	STK01
                                           	MOVRA	r0x101F
                                           	MOVAR	STK02
                                           	MOVRA	r0x101D
                                           ;;119	MOVAR	r0x101D
                                           ;;108	MOVAR	r0x101F
                                           ;;106	MOVRA	r0x1023
                                           ;;118	MOVAR	r0x1022
                                           	MOVAR	r0x101D
                                           	MOVRA	r0x1022
                                           	MOVRA	STK00
                                           ;;107	MOVAR	r0x1023
                                           	MOVAR	r0x101F
                                           	GOTO	_00485_DS_
                                           ;;122	MOVAR	r0x101E
                                           _00483_DS_
                                           ;	.line	666; "MC32F7361.c"	return (u32)BREATHING_LIGHT_OFF_TIME * 100 / color_component;
                                           	CLRR	r0x101F
                                           	CLRR	r0x1020
                                           	CLRR	r0x1021
                                           ;;121	MOVAR	r0x101D
                                           	MOVAR	r0x101E
                                           	MOVRA	r0x101D
                                           	MOVRA	STK06
                                           	MOVAI	0x00
                                           	MOVRA	STK05
                                           	MOVAI	0x00
                                           	MOVRA	STK04
                                           	MOVAI	0x00
                                           	MOVRA	STK03
                                           	MOVAI	0xc8
                                           	MOVRA	STK02
                                           	MOVAI	0xaf
                                           	MOVRA	STK01
                                           	MOVAI	0x00
                                           	MOVRA	STK00
                                           	MOVAI	0x00
                                           	CALL	__divulong
                                           	MOVRA	r0x1020
                                           	MOVAR	STK00
                                           	MOVRA	r0x101F
                                           	MOVAR	STK01
                                           	MOVRA	r0x1022
                                           	MOVRA	r0x101E
                                           	MOVAR	STK02
                                           	MOVRA	r0x1021
                                           	MOVRA	r0x101D
                                           ;;116	MOVAR	r0x101D
                                           ;;117	MOVAR	r0x101E
                                           	MOVAR	r0x1021
                                           	MOVRA	STK00
                                           	MOVAR	r0x1022
                                           _00485_DS_
                                           ;	.line	673; "MC32F7361.c"	}
                                           	RETURN	
                                           ; exit point of ___get_time_interval
                                           
                                           ;***
                                           ;  pBlock Stats: dbName = C
                                           ;***
                                           ;entry:  _mode_gradient	;Function start
                                           ; 2 exit points
                                           ;has an exit
                                           ;functions called:
                                           ;   __mulchar
                                           ;   ___color_gradient
                                           ;   __mulchar
                                           ;   ___color_gradient
                                           ;7 compiler assigned registers:
                                           ;   STK00
                                           ;   r0x102B
                                           ;   r0x102C
                                           ;   r0x102D
                                           ;   r0x102E
                                           ;   r0x102F
                                           ;   STK01
                                           ;; Starting pCode block
                                           _mode_gradient	;Function start
                                           ; 2 exit points
                                           ;	.line	627; "MC32F7361.c"	__color_gradient(color_buf[cur_color_index]);
                                           	MOVAI	0x03
                                           	MOVRA	STK00
                                           	MOVAR	_cur_color_index
                                           	CALL	__mulchar
                                           	MOVRA	r0x102B
                                           	MOVAR	r0x102B
                                           	ADDAI	(_color_buf + 0)
                                           	MOVRA	r0x102B
                                           	MOVAI	high (_color_buf + 0)
                                           	JBCLR	PFLAG,0
                                           	ADDAI	0x01
                                           	MOVRA	r0x102D
                                           ;;1	MOVRA	r0x102C
                                           ;;102	MOVAR	r0x102C
                                           ;;105	MOVAR	r0x102B
                                           ;;103	MOVRA	r0x102E
                                           	MOVAI	0x80
                                           	MOVRA	r0x102F
                                           ;;104	MOVAR	r0x102E
                                           	MOVAR	r0x102B
                                           	MOVRA	STK01
                                           	MOVAR	r0x102D
                                           	MOVRA	STK00
                                           	MOVAR	r0x102F
                                           	CALL	___color_gradient
                                           ;	.line	629; "MC32F7361.c"	if (0 == SWITCH_CHANGE_FLAG)
                                           	JBCLR	_flag1,6
                                           	GOTO	_00473_DS_
                                           ;	.line	632; "MC32F7361.c"	cur_color_index++;
                                           	INCR	_cur_color_index
                                           ;	.line	633; "MC32F7361.c"	if (COLOR_NUMS == cur_color_index) // 
                                           	MOVAR	_cur_color_index
                                           	XORAI	0x0a
                                           	JBSET	PFLAG,2
                                           	GOTO	_00475_DS_
                                           ;	.line	635; "MC32F7361.c"	cur_color_index = 0;
                                           	CLRR	_cur_color_index
                                           	GOTO	_00475_DS_
                                           _00473_DS_
                                           ;	.line	641; "MC32F7361.c"	SWITCH_CHANGE_FLAG = 0;
                                           	BCLR	_flag1,6
                                           _00475_DS_
                                           ;	.line	643; "MC32F7361.c"	}
                                           	RETURN	
                                           ; exit point of _mode_gradient
                                           
                                           ;***
                                           ;  pBlock Stats: dbName = C
                                           ;***
                                           ;entry:  ___color_gradient	;Function start
                                           ; 2 exit points
                                           ;has an exit
                                           ;functions called:
                                           ;   __gptrget1
                                           ;   __gptrget1
                                           ;   __gptrget1
                                           ;   ___get_gradient_adjust_time
                                           ;   ___get_gradient_adjust_time
                                           ;   ___get_gradient_adjust_time
                                           ;   _delay_ms
                                           ;   _delay_ms
                                           ;   _delay_ms
                                           ;   _color_set_component_r
                                           ;   _color_set_component_g
                                           ;   _color_set_component_b
                                           ;   _delay_ms
                                           ;   _delay_ms
                                           ;   _delay_ms
                                           ;   _delay_ms
                                           ;   _delay_ms
                                           ;   _delay_ms
                                           ;   __gptrget1
                                           ;   __gptrget1
                                           ;   __gptrget1
                                           ;   ___get_gradient_adjust_time
                                           ;   ___get_gradient_adjust_time
                                           ;   ___get_gradient_adjust_time
                                           ;   _delay_ms
                                           ;   _delay_ms
                                           ;   _delay_ms
                                           ;   _color_set_component_r
                                           ;   _color_set_component_g
                                           ;   _color_set_component_b
                                           ;   _delay_ms
                                           ;   _delay_ms
                                           ;   _delay_ms
                                           ;   _delay_ms
                                           ;   _delay_ms
                                           ;   _delay_ms
                                           ;9 compiler assigned registers:
                                           ;   r0x1025
                                           ;   STK00
                                           ;   r0x1026
                                           ;   STK01
                                           ;   r0x1027
                                           ;   r0x1028
                                           ;   r0x1029
                                           ;   r0x102A
                                           ;   STK02
                                           ;; Starting pCode block
                                           ___color_gradient	;Function start
                                           ; 2 exit points
                                           ;	.line	391; "MC32F7361.c"	void __color_gradient(u8 *next_color)
                                           	MOVRA	r0x1025
                                           	MOVAR	STK00
                                           	MOVRA	r0x1026
                                           	MOVAR	STK01
                                           	MOVRA	r0x1027
                                           ;	.line	393; "MC32F7361.c"	next_r = next_color[0];
                                           	MOVAR	r0x1027
                                           	MOVRA	STK01
                                           	MOVAR	r0x1026
                                           	MOVRA	STK00
                                           	MOVAR	r0x1025
                                           	CALL	__gptrget1
                                           	MOVRA	_next_r
                                           ;	.line	394; "MC32F7361.c"	next_g = next_color[1];
                                           	MOVAI	0x01
                                           	ADDAR	r0x1027
                                           	MOVRA	r0x1028
                                           	CLRR	r0x1029
                                           	RLR	r0x1029
                                           	MOVAR	r0x1026
                                           	ADDRA	r0x1029
                                           	CLRR	r0x102A
                                           	RLR	r0x102A
                                           	MOVAR	r0x1025
                                           	ADDRA	r0x102A
                                           	MOVAR	r0x1028
                                           	MOVRA	STK01
                                           	MOVAR	r0x1029
                                           	MOVRA	STK00
                                           	MOVAR	r0x102A
                                           	CALL	__gptrget1
                                           	MOVRA	_next_g
                                           ;	.line	395; "MC32F7361.c"	next_b = next_color[2];
                                           	MOVAI	0x02
                                           	ADDRA	r0x1027
                                           	JBCLR	PFLAG,0
                                           	INCR	r0x1026
                                           	JBCLR	PFLAG,2
                                           	INCR	r0x1025
                                           	MOVAR	r0x1027
                                           	MOVRA	STK01
                                           	MOVAR	r0x1026
                                           	MOVRA	STK00
                                           	MOVAR	r0x1025
                                           	CALL	__gptrget1
                                           	MOVRA	_next_b
                                           ;	.line	402; "MC32F7361.c"	if (cur_r > next_r)
                                           	MOVAR	_cur_r
                                           	RSUBAR	_next_r
                                           	JBCLR	PFLAG,0
                                           	GOTO	_00202_DS_
                                           ;;genSkipc:3291: created from rifx:013B5EFC
                                           ;	.line	404; "MC32F7361.c"	diff_r = cur_r - next_r;
                                           	MOVAR	_next_r
                                           	RSUBAR	_cur_r
                                           	MOVRA	r0x1027
                                           ;	.line	405; "MC32F7361.c"	DIR_R = 0; // 
                                           	BCLR	_flag1,0
                                           	GOTO	_00203_DS_
                                           _00202_DS_
                                           ;	.line	409; "MC32F7361.c"	diff_r = next_r - cur_r;
                                           	MOVAR	_cur_r
                                           	RSUBAR	_next_r
                                           	MOVRA	r0x1027
                                           ;	.line	410; "MC32F7361.c"	DIR_R = 1; // 
                                           	BSET	_flag1,0
                                           _00203_DS_
                                           ;	.line	413; "MC32F7361.c"	if (cur_g > next_g)
                                           	MOVAR	_cur_g
                                           	RSUBAR	_next_g
                                           	JBCLR	PFLAG,0
                                           	GOTO	_00205_DS_
                                           ;;genSkipc:3291: created from rifx:013B5EFC
                                           ;	.line	415; "MC32F7361.c"	diff_g = cur_g - next_g;
                                           	MOVAR	_next_g
                                           	RSUBAR	_cur_g
                                           	MOVRA	r0x1026
                                           ;	.line	416; "MC32F7361.c"	DIR_G = 0; // 
                                           	BCLR	_flag1,1
                                           	GOTO	_00206_DS_
                                           _00205_DS_
                                           ;	.line	420; "MC32F7361.c"	diff_g = next_g - cur_g;
                                           	MOVAR	_cur_g
                                           	RSUBAR	_next_g
                                           	MOVRA	r0x1026
                                           ;	.line	421; "MC32F7361.c"	DIR_G = 1; // 
                                           	BSET	_flag1,1
                                           _00206_DS_
                                           ;	.line	424; "MC32F7361.c"	if (cur_b > next_b)
                                           	MOVAR	_cur_b
                                           	RSUBAR	_next_b
                                           	JBCLR	PFLAG,0
                                           	GOTO	_00208_DS_
                                           ;;genSkipc:3291: created from rifx:013B5EFC
                                           ;	.line	426; "MC32F7361.c"	diff_b = cur_b - next_b;
                                           	MOVAR	_next_b
                                           	RSUBAR	_cur_b
                                           	MOVRA	r0x1025
                                           ;	.line	427; "MC32F7361.c"	DIR_B = 0; // 
                                           	BCLR	_flag1,2
                                           	GOTO	_00209_DS_
                                           _00208_DS_
                                           ;	.line	431; "MC32F7361.c"	diff_b = next_b - cur_b;
                                           	MOVAR	_cur_b
                                           	RSUBAR	_next_b
                                           	MOVRA	r0x1025
                                           ;	.line	432; "MC32F7361.c"	DIR_B = 1; // /
                                           	BSET	_flag1,2
                                           _00209_DS_
                                           ;	.line	436; "MC32F7361.c"	time_interval_r = __get_gradient_adjust_time(diff_r);
                                           	MOVAR	r0x1027
                                           	CALL	___get_gradient_adjust_time
                                           	MOVRA	(_time_interval_r + 1)
                                           	MOVAR	STK00
                                           	MOVRA	_time_interval_r
                                           ;	.line	437; "MC32F7361.c"	time_interval_g = __get_gradient_adjust_time(diff_g);
                                           	MOVAR	r0x1026
                                           	CALL	___get_gradient_adjust_time
                                           	MOVRA	(_time_interval_g + 1)
                                           	MOVAR	STK00
                                           	MOVRA	_time_interval_g
                                           ;	.line	438; "MC32F7361.c"	time_interval_b = __get_gradient_adjust_time(diff_b);
                                           	MOVAR	r0x1025
                                           	CALL	___get_gradient_adjust_time
                                           	MOVRA	(_time_interval_b + 1)
                                           	MOVAR	STK00
                                           	MOVRA	_time_interval_b
                                           ;	.line	447; "MC32F7361.c"	tmp_r = 0; // 
                                           	CLRR	_tmp_r
                                           	CLRR	(_tmp_r + 1)
                                           ;	.line	448; "MC32F7361.c"	tmp_g = 0;
                                           	CLRR	_tmp_g
                                           	CLRR	(_tmp_g + 1)
                                           ;	.line	449; "MC32F7361.c"	tmp_b = 0;
                                           	CLRR	_tmp_b
                                           	CLRR	(_tmp_b + 1)
                                           ;	.line	451; "MC32F7361.c"	for (u16 i = 0; i < GRADIENT_TIME; i++)
                                           	CLRR	r0x1027
                                           	CLRR	r0x1026
                                           ;;unsigned compare: left < lit(0x708=1800), size=2
                                           _00279_DS_
                                           	MOVAI	0x07
                                           	RSUBAR	r0x1026
                                           	JBSET	PFLAG,2
                                           	GOTO	_00452_DS_
                                           	MOVAI	0x08
                                           	RSUBAR	r0x1027
                                           _00452_DS_
                                           	JBCLR	PFLAG,0
                                           	GOTO	_00254_DS_
                                           ;;genSkipc:3291: created from rifx:013B5EFC
                                           ;	.line	455; "MC32F7361.c"	if (KEY_2_3_PIN == 0)
                                           	JBCLR	_IOP1bits,2
                                           	GOTO	_00225_DS_
                                           ;	.line	457; "MC32F7361.c"	delay_ms(10);
                                           	MOVAI	0x0a
                                           	MOVRA	STK02
                                           	MOVAI	0x00
                                           	MOVRA	STK01
                                           	MOVAI	0x00
                                           	MOVRA	STK00
                                           	MOVAI	0x00
                                           	CALL	_delay_ms
                                           ;	.line	458; "MC32F7361.c"	if (KEY_2_3_PIN == 0)
                                           	JBCLR	_IOP1bits,2
                                           	GOTO	_00226_DS_
                                           ;	.line	460; "MC32F7361.c"	right_key_val = RIGHT_KEY_UP;
                                           	MOVAI	0x04
                                           	MOVRA	_right_key_val
                                           ;	.line	462; "MC32F7361.c"	return;
                                           	GOTO	_00283_DS_
                                           _00225_DS_
                                           ;	.line	465; "MC32F7361.c"	else if (0 == KEY_1_1_PIN)
                                           	JBCLR	_IOP0bits,1
                                           	GOTO	_00222_DS_
                                           ;	.line	467; "MC32F7361.c"	delay_ms(10);
                                           	MOVAI	0x0a
                                           	MOVRA	STK02
                                           	MOVAI	0x00
                                           	MOVRA	STK01
                                           	MOVAI	0x00
                                           	MOVRA	STK00
                                           	MOVAI	0x00
                                           	CALL	_delay_ms
                                           ;	.line	468; "MC32F7361.c"	if (0 == KEY_1_1_PIN)
                                           	JBCLR	_IOP0bits,1
                                           	GOTO	_00226_DS_
                                           ;	.line	470; "MC32F7361.c"	left_key_val = LEFT_EY_UP;
                                           	MOVAI	0x01
                                           	MOVRA	_left_key_val
                                           ;	.line	472; "MC32F7361.c"	return;
                                           	GOTO	_00283_DS_
                                           _00222_DS_
                                           ;	.line	475; "MC32F7361.c"	else if ((0 == KEY_2_2_PIN) && (0 == LIGHT_SENSOR_PIN) &&
                                           	JBCLR	_IOP1bits,3
                                           	GOTO	_00226_DS_
                                           	JBCLR	_IOP1bits,1
                                           	GOTO	_00226_DS_
                                           ;	.line	476; "MC32F7361.c"	(0 == SWITCH_CHANGE_FLAG))
                                           	JBCLR	_flag1,6
                                           	GOTO	_00226_DS_
                                           ;	.line	479; "MC32F7361.c"	delay_ms(10);
                                           	MOVAI	0x0a
                                           	MOVRA	STK02
                                           	MOVAI	0x00
                                           	MOVRA	STK01
                                           	MOVAI	0x00
                                           	MOVRA	STK00
                                           	MOVAI	0x00
                                           	CALL	_delay_ms
                                           ;	.line	480; "MC32F7361.c"	if ((0 == KEY_2_2_PIN) && (0 == LIGHT_SENSOR_PIN))
                                           	JBCLR	_IOP1bits,3
                                           	GOTO	_00226_DS_
                                           	JBCLR	_IOP1bits,1
                                           	GOTO	_00226_DS_
                                           ;	.line	483; "MC32F7361.c"	RGB_ENABLE = 0; // 
                                           	BCLR	_flag1,3
                                           ;	.line	484; "MC32F7361.c"	SWITCH_CHANGE_FLAG = 1;
                                           	BSET	_flag1,6
                                           ;	.line	485; "MC32F7361.c"	return;
                                           	GOTO	_00283_DS_
                                           _00226_DS_
                                           ;	.line	493; "MC32F7361.c"	tmp_r += 100;
                                           	MOVAI	0x64
                                           	ADDRA	_tmp_r
                                           	JBCLR	PFLAG,0
                                           	INCR	(_tmp_r + 1)
                                           ;	.line	494; "MC32F7361.c"	tmp_g += 100;
                                           	MOVAI	0x64
                                           	ADDRA	_tmp_g
                                           	JBCLR	PFLAG,0
                                           	INCR	(_tmp_g + 1)
                                           ;	.line	495; "MC32F7361.c"	tmp_b += 100;
                                           	MOVAI	0x64
                                           	ADDRA	_tmp_b
                                           	JBCLR	PFLAG,0
                                           	INCR	(_tmp_b + 1)
                                           ;	.line	497; "MC32F7361.c"	if (DIR_R) // 
                                           	JBSET	_flag1,0
                                           	GOTO	_00234_DS_
                                           ;	.line	500; "MC32F7361.c"	if (tmp_r >= time_interval_r && cur_r < next_r)
                                           	MOVAR	(_time_interval_r + 1)
                                           	RSUBAR	(_tmp_r + 1)
                                           	JBSET	PFLAG,2
                                           	GOTO	_00453_DS_
                                           	MOVAR	_time_interval_r
                                           	RSUBAR	_tmp_r
                                           _00453_DS_
                                           	JBSET	PFLAG,0
                                           	GOTO	_00235_DS_
                                           ;;genSkipc:3291: created from rifx:013B5EFC
                                           	MOVAR	_next_r
                                           	RSUBAR	_cur_r
                                           	JBCLR	PFLAG,0
                                           	GOTO	_00235_DS_
                                           ;;genSkipc:3291: created from rifx:013B5EFC
                                           ;	.line	503; "MC32F7361.c"	tmp_r = 0;
                                           	CLRR	_tmp_r
                                           	CLRR	(_tmp_r + 1)
                                           ;	.line	504; "MC32F7361.c"	cur_r++;
                                           	INCR	_cur_r
                                           	GOTO	_00235_DS_
                                           _00234_DS_
                                           ;	.line	511; "MC32F7361.c"	if (tmp_r >= time_interval_r && cur_r > next_r)
                                           	MOVAR	(_time_interval_r + 1)
                                           	RSUBAR	(_tmp_r + 1)
                                           	JBSET	PFLAG,2
                                           	GOTO	_00455_DS_
                                           	MOVAR	_time_interval_r
                                           	RSUBAR	_tmp_r
                                           _00455_DS_
                                           	JBSET	PFLAG,0
                                           	GOTO	_00235_DS_
                                           ;;genSkipc:3291: created from rifx:013B5EFC
                                           	MOVAR	_cur_r
                                           	RSUBAR	_next_r
                                           	JBCLR	PFLAG,0
                                           	GOTO	_00235_DS_
                                           ;;genSkipc:3291: created from rifx:013B5EFC
                                           ;	.line	514; "MC32F7361.c"	tmp_r = 0;
                                           	CLRR	_tmp_r
                                           	CLRR	(_tmp_r + 1)
                                           ;	.line	515; "MC32F7361.c"	cur_r--;
                                           	DECR	_cur_r
                                           _00235_DS_
                                           ;	.line	519; "MC32F7361.c"	if (DIR_G)
                                           	JBSET	_flag1,1
                                           	GOTO	_00243_DS_
                                           ;	.line	522; "MC32F7361.c"	if (tmp_g >= time_interval_g && cur_g < next_g)
                                           	MOVAR	(_time_interval_g + 1)
                                           	RSUBAR	(_tmp_g + 1)
                                           	JBSET	PFLAG,2
                                           	GOTO	_00457_DS_
                                           	MOVAR	_time_interval_g
                                           	RSUBAR	_tmp_g
                                           _00457_DS_
                                           	JBSET	PFLAG,0
                                           	GOTO	_00244_DS_
                                           ;;genSkipc:3291: created from rifx:013B5EFC
                                           	MOVAR	_next_g
                                           	RSUBAR	_cur_g
                                           	JBCLR	PFLAG,0
                                           	GOTO	_00244_DS_
                                           ;;genSkipc:3291: created from rifx:013B5EFC
                                           ;	.line	525; "MC32F7361.c"	tmp_g = 0;
                                           	CLRR	_tmp_g
                                           	CLRR	(_tmp_g + 1)
                                           ;	.line	526; "MC32F7361.c"	cur_g++;
                                           	INCR	_cur_g
                                           	GOTO	_00244_DS_
                                           _00243_DS_
                                           ;	.line	532; "MC32F7361.c"	if (tmp_g >= time_interval_g && cur_g > next_g)
                                           	MOVAR	(_time_interval_g + 1)
                                           	RSUBAR	(_tmp_g + 1)
                                           	JBSET	PFLAG,2
                                           	GOTO	_00459_DS_
                                           	MOVAR	_time_interval_g
                                           	RSUBAR	_tmp_g
                                           _00459_DS_
                                           	JBSET	PFLAG,0
                                           	GOTO	_00244_DS_
                                           ;;genSkipc:3291: created from rifx:013B5EFC
                                           	MOVAR	_cur_g
                                           	RSUBAR	_next_g
                                           	JBCLR	PFLAG,0
                                           	GOTO	_00244_DS_
                                           ;;genSkipc:3291: created from rifx:013B5EFC
                                           ;	.line	535; "MC32F7361.c"	tmp_g = 0;
                                           	CLRR	_tmp_g
                                           	CLRR	(_tmp_g + 1)
                                           ;	.line	536; "MC32F7361.c"	cur_g--;
                                           	DECR	_cur_g
                                           _00244_DS_
                                           ;	.line	540; "MC32F7361.c"	if (DIR_B)
                                           	JBSET	_flag1,2
                                           	GOTO	_00252_DS_
                                           ;	.line	543; "MC32F7361.c"	if (tmp_b >= time_interval_b && cur_b < next_b)
                                           	MOVAR	(_time_interval_b + 1)
                                           	RSUBAR	(_tmp_b + 1)
                                           	JBSET	PFLAG,2
                                           	GOTO	_00461_DS_
                                           	MOVAR	_time_interval_b
                                           	RSUBAR	_tmp_b
                                           _00461_DS_
                                           	JBSET	PFLAG,0
                                           	GOTO	_00253_DS_
                                           ;;genSkipc:3291: created from rifx:013B5EFC
                                           	MOVAR	_next_b
                                           	RSUBAR	_cur_b
                                           	JBCLR	PFLAG,0
                                           	GOTO	_00253_DS_
                                           ;;genSkipc:3291: created from rifx:013B5EFC
                                           ;	.line	546; "MC32F7361.c"	tmp_b = 0;
                                           	CLRR	_tmp_b
                                           	CLRR	(_tmp_b + 1)
                                           ;	.line	547; "MC32F7361.c"	cur_b++;
                                           	INCR	_cur_b
                                           	GOTO	_00253_DS_
                                           _00252_DS_
                                           ;	.line	553; "MC32F7361.c"	if (tmp_b >= time_interval_b && cur_b > next_b)
                                           	MOVAR	(_time_interval_b + 1)
                                           	RSUBAR	(_tmp_b + 1)
                                           	JBSET	PFLAG,2
                                           	GOTO	_00463_DS_
                                           	MOVAR	_time_interval_b
                                           	RSUBAR	_tmp_b
                                           _00463_DS_
                                           	JBSET	PFLAG,0
                                           	GOTO	_00253_DS_
                                           ;;genSkipc:3291: created from rifx:013B5EFC
                                           	MOVAR	_cur_b
                                           	RSUBAR	_next_b
                                           	JBCLR	PFLAG,0
                                           	GOTO	_00253_DS_
                                           ;;genSkipc:3291: created from rifx:013B5EFC
                                           ;	.line	556; "MC32F7361.c"	tmp_b = 0;
                                           	CLRR	_tmp_b
                                           	CLRR	(_tmp_b + 1)
                                           ;	.line	557; "MC32F7361.c"	cur_b--;
                                           	DECR	_cur_b
                                           _00253_DS_
                                           ;	.line	561; "MC32F7361.c"	color_set_component_r(cur_r); // 
                                           	MOVAR	_cur_r
                                           	CALL	_color_set_component_r
                                           ;	.line	562; "MC32F7361.c"	color_set_component_g(cur_g); // 
                                           	MOVAR	_cur_g
                                           	CALL	_color_set_component_g
                                           ;	.line	563; "MC32F7361.c"	color_set_component_b(cur_b); // 
                                           	MOVAR	_cur_b
                                           	CALL	_color_set_component_b
                                           ;	.line	564; "MC32F7361.c"	delay_ms(1);                  //
                                           	MOVAI	0x01
                                           	MOVRA	STK02
                                           	MOVAI	0x00
                                           	MOVRA	STK01
                                           	MOVAI	0x00
                                           	MOVRA	STK00
                                           	MOVAI	0x00
                                           	CALL	_delay_ms
                                           ;	.line	451; "MC32F7361.c"	for (u16 i = 0; i < GRADIENT_TIME; i++)
                                           	INCR	r0x1027
                                           	JBCLR	PFLAG,2
                                           	INCR	r0x1026
                                           	GOTO	_00279_DS_
                                           _00254_DS_
                                           ;	.line	575; "MC32F7361.c"	for (i = 0; i < 2000; i++) //  xx ms
                                           	CLRR	_i
                                           	CLRR	(_i + 1)
                                           _00281_DS_
                                           ;	.line	577; "MC32F7361.c"	if (KEY_2_3_PIN == 0)
                                           	JBCLR	_IOP1bits,2
                                           	GOTO	_00275_DS_
                                           ;	.line	579; "MC32F7361.c"	delay_ms(10);
                                           	MOVAI	0x0a
                                           	MOVRA	STK02
                                           	MOVAI	0x00
                                           	MOVRA	STK01
                                           	MOVAI	0x00
                                           	MOVRA	STK00
                                           	MOVAI	0x00
                                           	CALL	_delay_ms
                                           ;	.line	580; "MC32F7361.c"	if (KEY_2_3_PIN == 0)
                                           	JBCLR	_IOP1bits,2
                                           	GOTO	_00276_DS_
                                           ;	.line	582; "MC32F7361.c"	right_key_val = RIGHT_KEY_UP;
                                           	MOVAI	0x04
                                           	MOVRA	_right_key_val
                                           ;	.line	584; "MC32F7361.c"	return;
                                           	GOTO	_00283_DS_
                                           _00275_DS_
                                           ;	.line	587; "MC32F7361.c"	else if (0 == KEY_1_1_PIN)
                                           	JBCLR	_IOP0bits,1
                                           	GOTO	_00272_DS_
                                           ;	.line	589; "MC32F7361.c"	delay_ms(10);
                                           	MOVAI	0x0a
                                           	MOVRA	STK02
                                           	MOVAI	0x00
                                           	MOVRA	STK01
                                           	MOVAI	0x00
                                           	MOVRA	STK00
                                           	MOVAI	0x00
                                           	CALL	_delay_ms
                                           ;	.line	590; "MC32F7361.c"	if (0 == KEY_1_1_PIN)
                                           	JBCLR	_IOP0bits,1
                                           	GOTO	_00276_DS_
                                           ;	.line	592; "MC32F7361.c"	left_key_val = LEFT_EY_UP;
                                           	MOVAI	0x01
                                           	MOVRA	_left_key_val
                                           ;	.line	594; "MC32F7361.c"	return;
                                           	GOTO	_00283_DS_
                                           _00272_DS_
                                           ;	.line	597; "MC32F7361.c"	else if ((0 == KEY_2_2_PIN) && (0 == LIGHT_SENSOR_PIN) &&
                                           	JBCLR	_IOP1bits,3
                                           	GOTO	_00267_DS_
                                           	JBCLR	_IOP1bits,1
                                           	GOTO	_00267_DS_
                                           ;	.line	598; "MC32F7361.c"	(0 == SWITCH_CHANGE_FLAG))
                                           	JBCLR	_flag1,6
                                           	GOTO	_00267_DS_
                                           ;	.line	600; "MC32F7361.c"	delay_ms(10);
                                           	MOVAI	0x0a
                                           	MOVRA	STK02
                                           	MOVAI	0x00
                                           	MOVRA	STK01
                                           	MOVAI	0x00
                                           	MOVRA	STK00
                                           	MOVAI	0x00
                                           	CALL	_delay_ms
                                           ;	.line	601; "MC32F7361.c"	if ((0 == KEY_2_2_PIN) && (0 == LIGHT_SENSOR_PIN))
                                           	JBCLR	_IOP1bits,3
                                           	GOTO	_00276_DS_
                                           	JBCLR	_IOP1bits,1
                                           	GOTO	_00276_DS_
                                           ;	.line	604; "MC32F7361.c"	RGB_ENABLE = 0; // 
                                           	BCLR	_flag1,3
                                           ;	.line	605; "MC32F7361.c"	SWITCH_CHANGE_FLAG = 1;
                                           	BSET	_flag1,6
                                           ;	.line	606; "MC32F7361.c"	return;
                                           	GOTO	_00283_DS_
                                           _00267_DS_
                                           ;	.line	610; "MC32F7361.c"	else if (0 == KEY_1_3_PIN)
                                           	JBCLR	_IOP0bits,0
                                           	GOTO	_00276_DS_
                                           ;	.line	612; "MC32F7361.c"	delay_ms(10);
                                           	MOVAI	0x0a
                                           	MOVRA	STK02
                                           	MOVAI	0x00
                                           	MOVRA	STK01
                                           	MOVAI	0x00
                                           	MOVRA	STK00
                                           	MOVAI	0x00
                                           	CALL	_delay_ms
                                           ;	.line	613; "MC32F7361.c"	if (0 == KEY_1_3_PIN)
                                           	JBCLR	_IOP0bits,0
                                           	GOTO	_00276_DS_
                                           ;	.line	615; "MC32F7361.c"	left_key_val = KEY_1_3_PIN;
                                           	CLRR	r0x1027
                                           	JBCLR	_IOP0bits,0
                                           	INCR	r0x1027
                                           	MOVAR	r0x1027
                                           	MOVRA	_left_key_val
                                           ;	.line	616; "MC32F7361.c"	return;
                                           	GOTO	_00283_DS_
                                           _00276_DS_
                                           ;	.line	620; "MC32F7361.c"	delay_ms(1);
                                           	MOVAI	0x01
                                           	MOVRA	STK02
                                           	MOVAI	0x00
                                           	MOVRA	STK01
                                           	MOVAI	0x00
                                           	MOVRA	STK00
                                           	MOVAI	0x00
                                           	CALL	_delay_ms
                                           ;	.line	575; "MC32F7361.c"	for (i = 0; i < 2000; i++) //  xx ms
                                           	INCR	_i
                                           	JBCLR	PFLAG,2
                                           	INCR	(_i + 1)
                                           ;;unsigned compare: left < lit(0x7D0=2000), size=2
                                           	MOVAI	0x07
                                           	RSUBAR	(_i + 1)
                                           	JBSET	PFLAG,2
                                           	GOTO	_00465_DS_
                                           	MOVAI	0xd0
                                           	RSUBAR	_i
                                           _00465_DS_
                                           	JBSET	PFLAG,0
                                           	GOTO	_00281_DS_
                                           ;;genSkipc:3291: created from rifx:013B5EFC
                                           _00283_DS_
                                           ;	.line	622; "MC32F7361.c"	}
                                           	RETURN	
                                           ; exit point of ___color_gradient
                                           
                                           ;***
                                           ;  pBlock Stats: dbName = C
                                           ;***
                                           ;entry:  ___get_gradient_adjust_time	;Function start
                                           ; 2 exit points
                                           ;has an exit
                                           ;functions called:
                                           ;   __divulong
                                           ;   __divulong
                                           ;13 compiler assigned registers:
                                           ;   r0x101D
                                           ;   r0x101E
                                           ;   r0x101F
                                           ;   r0x1020
                                           ;   r0x1021
                                           ;   STK06
                                           ;   STK05
                                           ;   STK04
                                           ;   STK03
                                           ;   STK02
                                           ;   STK01
                                           ;   STK00
                                           ;   r0x1022
                                           ;; Starting pCode block
                                           ___get_gradient_adjust_time	;Function start
                                           ; 2 exit points
                                           ;	.line	385; "MC32F7361.c"	u16 __get_gradient_adjust_time(u8 color_component)
                                           	MOVRA	r0x101D
                                           ;;115	MOVAR	r0x101D
                                           ;	.line	387; "MC32F7361.c"	return (u32)GRADIENT_TIME * 100 / color_component;
                                           	CLRR	r0x101F
                                           	CLRR	r0x1020
                                           	CLRR	r0x1021
                                           ;;114	MOVAR	r0x101E
                                           	MOVAR	r0x101D
                                           	MOVRA	r0x101E
                                           	MOVRA	STK06
                                           	MOVAI	0x00
                                           	MOVRA	STK05
                                           	MOVAI	0x00
                                           	MOVRA	STK04
                                           	MOVAI	0x00
                                           	MOVRA	STK03
                                           	MOVAI	0x20
                                           	MOVRA	STK02
                                           	MOVAI	0xbf
                                           	MOVRA	STK01
                                           	MOVAI	0x02
                                           	MOVRA	STK00
                                           	MOVAI	0x00
                                           	CALL	__divulong
                                           	MOVRA	r0x1020
                                           	MOVAR	STK00
                                           	MOVRA	r0x101F
                                           	MOVAR	STK01
                                           	MOVRA	r0x101E
                                           	MOVAR	STK02
                                           	MOVRA	r0x1021
                                           	MOVRA	r0x101D
                                           ;;113	MOVAR	r0x101D
                                           ;;101	MOVAR	r0x101E
                                           ;;99	MOVRA	r0x1022
                                           	MOVAR	r0x1021
                                           	MOVRA	STK00
                                           ;;100	MOVAR	r0x1022
                                           	MOVAR	r0x101E
                                           ;	.line	388; "MC32F7361.c"	}
                                           	RETURN	
                                           ; exit point of ___get_gradient_adjust_time
                                           
                                           ;***
                                           ;  pBlock Stats: dbName = C
                                           ;***
                                           ;entry:  _color_set_component_b	;Function start
                                           ; 2 exit points
                                           ;has an exit
                                           ;functions called:
                                           ;   _pwm_set_duty
                                           ;   _pwm_set_duty
                                           ;2 compiler assigned registers:
                                           ;   r0x101F
                                           ;   STK00
                                           ;; Starting pCode block
                                           _color_set_component_b	;Function start
                                           ; 2 exit points
                                           ;	.line	378; "MC32F7361.c"	void color_set_component_b(const u8 component_b_val)
                                           	MOVRA	r0x101F
                                           ;	.line	380; "MC32F7361.c"	pwm_set_duty(0, component_b_val); // 
                                           	MOVAR	r0x101F
                                           	MOVRA	STK00
                                           	MOVAI	0x00
                                           	CALL	_pwm_set_duty
                                           ;	.line	381; "MC32F7361.c"	}
                                           	RETURN	
                                           ; exit point of _color_set_component_b
                                           
                                           ;***
                                           ;  pBlock Stats: dbName = C
                                           ;***
                                           ;entry:  _color_set_component_g	;Function start
                                           ; 2 exit points
                                           ;has an exit
                                           ;functions called:
                                           ;   _pwm_set_duty
                                           ;   _pwm_set_duty
                                           ;2 compiler assigned registers:
                                           ;   r0x101F
                                           ;   STK00
                                           ;; Starting pCode block
                                           _color_set_component_g	;Function start
                                           ; 2 exit points
                                           ;	.line	372; "MC32F7361.c"	void color_set_component_g(const u8 component_g_val)
                                           	MOVRA	r0x101F
                                           ;	.line	374; "MC32F7361.c"	pwm_set_duty(1, component_g_val); // 
                                           	MOVAR	r0x101F
                                           	MOVRA	STK00
                                           	MOVAI	0x01
                                           	CALL	_pwm_set_duty
                                           ;	.line	375; "MC32F7361.c"	}
                                           	RETURN	
                                           ; exit point of _color_set_component_g
                                           
                                           ;***
                                           ;  pBlock Stats: dbName = C
                                           ;***
                                           ;entry:  _color_set_component_r	;Function start
                                           ; 2 exit points
                                           ;has an exit
                                           ;functions called:
                                           ;   _pwm_set_duty
                                           ;   _pwm_set_duty
                                           ;2 compiler assigned registers:
                                           ;   r0x101F
                                           ;   STK00
                                           ;; Starting pCode block
                                           _color_set_component_r	;Function start
                                           ; 2 exit points
                                           ;	.line	366; "MC32F7361.c"	void color_set_component_r(const u8 component_r_val)
                                           	MOVRA	r0x101F
                                           ;	.line	368; "MC32F7361.c"	pwm_set_duty(2, component_r_val); // 
                                           	MOVAR	r0x101F
                                           	MOVRA	STK00
                                           	MOVAI	0x02
                                           	CALL	_pwm_set_duty
                                           ;	.line	369; "MC32F7361.c"	}
                                           	RETURN	
                                           ; exit point of _color_set_component_r
                                           
                                           ;***
                                           ;  pBlock Stats: dbName = C
                                           ;***
                                           ;entry:  _color_show	;Function start
                                           ; 2 exit points
                                           ;has an exit
                                           ;functions called:
                                           ;   __gptrget1
                                           ;   __gptrget1
                                           ;   __gptrget1
                                           ;   _color_set_component_r
                                           ;   _color_set_component_g
                                           ;   _color_set_component_b
                                           ;   __gptrget1
                                           ;   __gptrget1
                                           ;   __gptrget1
                                           ;   _color_set_component_r
                                           ;   _color_set_component_g
                                           ;   _color_set_component_b
                                           ;8 compiler assigned registers:
                                           ;   r0x1020
                                           ;   STK00
                                           ;   r0x1021
                                           ;   STK01
                                           ;   r0x1022
                                           ;   r0x1023
                                           ;   r0x1024
                                           ;   r0x1025
                                           ;; Starting pCode block
                                           _color_show	;Function start
                                           ; 2 exit points
                                           ;	.line	354; "MC32F7361.c"	void color_show(u8 *rgb_val)
                                           	MOVRA	r0x1020
                                           	MOVAR	STK00
                                           	MOVRA	r0x1021
                                           	MOVAR	STK01
                                           	MOVRA	r0x1022
                                           ;	.line	356; "MC32F7361.c"	cur_r = rgb_val[0];
                                           	MOVAR	r0x1022
                                           	MOVRA	STK01
                                           	MOVAR	r0x1021
                                           	MOVRA	STK00
                                           	MOVAR	r0x1020
                                           	CALL	__gptrget1
                                           	MOVRA	_cur_r
                                           ;	.line	357; "MC32F7361.c"	cur_g = rgb_val[1];
                                           	MOVAI	0x01
                                           	ADDAR	r0x1022
                                           	MOVRA	r0x1023
                                           	CLRR	r0x1024
                                           	RLR	r0x1024
                                           	MOVAR	r0x1021
                                           	ADDRA	r0x1024
                                           	CLRR	r0x1025
                                           	RLR	r0x1025
                                           	MOVAR	r0x1020
                                           	ADDRA	r0x1025
                                           	MOVAR	r0x1023
                                           	MOVRA	STK01
                                           	MOVAR	r0x1024
                                           	MOVRA	STK00
                                           	MOVAR	r0x1025
                                           	CALL	__gptrget1
                                           	MOVRA	_cur_g
                                           ;	.line	358; "MC32F7361.c"	cur_b = rgb_val[2];
                                           	MOVAI	0x02
                                           	ADDRA	r0x1022
                                           	JBCLR	PFLAG,0
                                           	INCR	r0x1021
                                           	JBCLR	PFLAG,2
                                           	INCR	r0x1020
                                           	MOVAR	r0x1022
                                           	MOVRA	STK01
                                           	MOVAR	r0x1021
                                           	MOVRA	STK00
                                           	MOVAR	r0x1020
                                           	CALL	__gptrget1
                                           	MOVRA	_cur_b
                                           ;	.line	360; "MC32F7361.c"	color_set_component_r(cur_r); // 
                                           	MOVAR	_cur_r
                                           	CALL	_color_set_component_r
                                           ;	.line	361; "MC32F7361.c"	color_set_component_g(cur_g); // 
                                           	MOVAR	_cur_g
                                           	CALL	_color_set_component_g
                                           ;	.line	362; "MC32F7361.c"	color_set_component_b(cur_b); // 
                                           	MOVAR	_cur_b
                                           	CALL	_color_set_component_b
                                           ;	.line	363; "MC32F7361.c"	}
                                           	RETURN	
                                           ; exit point of _color_show
                                           
                                           ;***
                                           ;  pBlock Stats: dbName = C
                                           ;***
                                           ;entry:  _pwm_set_duty	;Function start
                                           ; 2 exit points
                                           ;has an exit
                                           ;3 compiler assigned registers:
                                           ;   r0x101D
                                           ;   STK00
                                           ;   r0x101E
                                           ;; Starting pCode block
                                           _pwm_set_duty	;Function start
                                           ; 2 exit points
                                           ;	.line	326; "MC32F7361.c"	void pwm_set_duty(u8 pwm_x, const u8 duty)
                                           	MOVRA	r0x101D
                                           	MOVAR	STK00
                                           	MOVRA	r0x101E
                                           ;;swapping arguments (AOP_TYPEs 1/2)
                                           ;;unsigned compare: left >= lit(0x3=3), size=1
                                           ;	.line	339; "MC32F7361.c"	switch (pwm_x)
                                           	MOVAI	0x03
                                           	RSUBAR	r0x101D
                                           	JBCLR	PFLAG,0
                                           	GOTO	_00176_DS_
                                           ;;genSkipc:3291: created from rifx:013B5EFC
                                           	MOVAR	r0x101D
                                           	ADDRA	PCL
                                           	GOTO	_00172_DS_
                                           	GOTO	_00173_DS_
                                           	GOTO	_00174_DS_
                                           _00172_DS_
                                           ;	.line	342; "MC32F7361.c"	T0DATA = duty; // 
                                           	MOVAR	r0x101E
                                           	MOVRA	_T0DATA
                                           ;	.line	343; "MC32F7361.c"	break;
                                           	GOTO	_00176_DS_
                                           _00173_DS_
                                           ;	.line	345; "MC32F7361.c"	T1DATA = duty;
                                           	MOVAR	r0x101E
                                           	MOVRA	_T1DATA
                                           ;	.line	346; "MC32F7361.c"	break;
                                           	GOTO	_00176_DS_
                                           _00174_DS_
                                           ;	.line	348; "MC32F7361.c"	T2DATA = duty;
                                           	MOVAR	r0x101E
                                           	MOVRA	_T2DATA
                                           _00176_DS_
                                           ;	.line	351; "MC32F7361.c"	}
                                           	RETURN	
                                           ; exit point of _pwm_set_duty
                                           
                                           ;***
                                           ;  pBlock Stats: dbName = C
                                           ;***
                                           ;entry:  _timer2_pwm_config	;Function start
                                           ; 2 exit points
                                           ;has an exit
                                           ;; Starting pCode block
                                           _timer2_pwm_config	;Function start
                                           ; 2 exit points
                                           ;	.line	296; "MC32F7361.c"	T2CR |= 0x01 << 6; //  PWM2 
                                           	BSET	_T2CR,6
                                           ;	.line	297; "MC32F7361.c"	T2CNT = 255 - 1;   // T2
                                           	MOVAI	0xfe
                                           	MOVRA	_T2CNT
                                           ;	.line	298; "MC32F7361.c"	T2LOAD = 255 - 1;  // T2
                                           	MOVAI	0xfe
                                           	MOVRA	_T2LOAD
                                           ;	.line	304; "MC32F7361.c"	T2DATA = 0;
                                           	CLRR	_T2DATA
                                           ;	.line	308; "MC32F7361.c"	T2EN = 1; // T2
                                           	BSET	_T2CRbits,7
                                           ;	.line	310; "MC32F7361.c"	}
                                           	RETURN	
                                           ; exit point of _timer2_pwm_config
                                           
                                           ;***
                                           ;  pBlock Stats: dbName = C
                                           ;***
                                           ;entry:  _timer1_pwm_config	;Function start
                                           ; 2 exit points
                                           ;has an exit
                                           ;; Starting pCode block
                                           _timer1_pwm_config	;Function start
                                           ; 2 exit points
                                           ;	.line	273; "MC32F7361.c"	T1CR |= 0x01 << 6; //  PWM 
                                           	BSET	_T1CR,6
                                           ;	.line	274; "MC32F7361.c"	T1CNT = 255 - 1;
                                           	MOVAI	0xfe
                                           	MOVRA	_T1CNT
                                           ;	.line	275; "MC32F7361.c"	T1LOAD = 255 - 1; //
                                           	MOVAI	0xfe
                                           	MOVRA	_T1LOAD
                                           ;	.line	281; "MC32F7361.c"	T1DATA = 0;
                                           	CLRR	_T1DATA
                                           ;	.line	283; "MC32F7361.c"	PWMCR1 &= ~(0x01 << 1); // PWM1
                                           	BCLR	_PWMCR1,1
                                           ;	.line	284; "MC32F7361.c"	T1EN = 1;
                                           	BSET	_T1CRbits,7
                                           ;	.line	286; "MC32F7361.c"	}
                                           	RETURN	
                                           ; exit point of _timer1_pwm_config
                                           
                                           ;***
                                           ;  pBlock Stats: dbName = C
                                           ;***
                                           ;entry:  _timer0_pwm_config	;Function start
                                           ; 2 exit points
                                           ;has an exit
                                           ;; Starting pCode block
                                           _timer0_pwm_config	;Function start
                                           ; 2 exit points
                                           ;	.line	248; "MC32F7361.c"	T0CR |= 0x01 << 6; //  PWM0 
                                           	BSET	_T0CR,6
                                           ;	.line	249; "MC32F7361.c"	T0CNT = 255 - 1;
                                           	MOVAI	0xfe
                                           	MOVRA	_T0CNT
                                           ;	.line	250; "MC32F7361.c"	T0LOAD = 255 - 1; //
                                           	MOVAI	0xfe
                                           	MOVRA	_T0LOAD
                                           ;	.line	256; "MC32F7361.c"	T0DATA = 0;
                                           	CLRR	_T0DATA
                                           ;	.line	258; "MC32F7361.c"	PWMCR0 &= ~(0x01 << 4); // PWM0
                                           	BCLR	_PWMCR0,4
                                           ;	.line	259; "MC32F7361.c"	PWMCR1 &= ~(0x01 << 0); // PWM0
                                           	BCLR	_PWMCR1,0
                                           ;	.line	260; "MC32F7361.c"	PWMCR3 &= ~(0x01 << 2); // PWM0  PWM0 O0P16
                                           	BCLR	_PWMCR3,2
                                           ;	.line	261; "MC32F7361.c"	T0EN = 1;
                                           	BSET	_T0CRbits,7
                                           ;	.line	263; "MC32F7361.c"	}
                                           	RETURN	
                                           ; exit point of _timer0_pwm_config
                                           
                                           ;***
                                           ;  pBlock Stats: dbName = C
                                           ;***
                                           ;entry:  _key_scan	;Function start
                                           ; 2 exit points
                                           ;has an exit
                                           ;functions called:
                                           ;   _delay_ms
                                           ;   _delay_ms
                                           ;   _delay_ms
                                           ;   _delay_ms
                                           ;   _delay_ms
                                           ;   _delay_ms
                                           ;   _delay_ms
                                           ;   _delay_ms
                                           ;   _delay_ms
                                           ;   _delay_ms
                                           ;   _delay_ms
                                           ;   _delay_ms
                                           ;3 compiler assigned registers:
                                           ;   STK02
                                           ;   STK01
                                           ;   STK00
                                           ;; Starting pCode block
                                           _key_scan	;Function start
                                           ; 2 exit points
                                           ;	.line	182; "MC32F7361.c"	if (KEY_1_1_PIN == 0)
                                           	JBCLR	_IOP0bits,1
                                           	GOTO	_00139_DS_
                                           ;	.line	185; "MC32F7361.c"	delay_ms(10);
                                           	MOVAI	0x0a
                                           	MOVRA	STK02
                                           	MOVAI	0x00
                                           	MOVRA	STK01
                                           	MOVAI	0x00
                                           	MOVRA	STK00
                                           	MOVAI	0x00
                                           	CALL	_delay_ms
                                           ;	.line	186; "MC32F7361.c"	if (KEY_1_1_PIN == 0)
                                           	JBCLR	_IOP0bits,1
                                           	GOTO	_00140_DS_
                                           ;	.line	188; "MC32F7361.c"	left_key_val = LEFT_EY_UP;
                                           	MOVAI	0x01
                                           	MOVRA	_left_key_val
                                           	GOTO	_00140_DS_
                                           _00139_DS_
                                           ;	.line	191; "MC32F7361.c"	else if (KEY_1_2_PIN == 0)
                                           	JBCLR	_IOP0bits,2
                                           	GOTO	_00136_DS_
                                           ;	.line	194; "MC32F7361.c"	delay_ms(10);
                                           	MOVAI	0x0a
                                           	MOVRA	STK02
                                           	MOVAI	0x00
                                           	MOVRA	STK01
                                           	MOVAI	0x00
                                           	MOVRA	STK00
                                           	MOVAI	0x00
                                           	CALL	_delay_ms
                                           ;	.line	195; "MC32F7361.c"	if (KEY_1_2_PIN == 0)
                                           	JBCLR	_IOP0bits,2
                                           	GOTO	_00140_DS_
                                           ;	.line	197; "MC32F7361.c"	left_key_val = LEFT_KEY_MID;
                                           	MOVAI	0x02
                                           	MOVRA	_left_key_val
                                           	GOTO	_00140_DS_
                                           _00136_DS_
                                           ;	.line	200; "MC32F7361.c"	else if (KEY_1_3_PIN == 0)
                                           	JBCLR	_IOP0bits,0
                                           	GOTO	_00140_DS_
                                           ;	.line	203; "MC32F7361.c"	delay_ms(10);
                                           	MOVAI	0x0a
                                           	MOVRA	STK02
                                           	MOVAI	0x00
                                           	MOVRA	STK01
                                           	MOVAI	0x00
                                           	MOVRA	STK00
                                           	MOVAI	0x00
                                           	CALL	_delay_ms
                                           ;	.line	204; "MC32F7361.c"	if (KEY_1_3_PIN == 0)
                                           	JBCLR	_IOP0bits,0
                                           	GOTO	_00140_DS_
                                           ;	.line	206; "MC32F7361.c"	left_key_val = LEFT_KEY_BOTTOM;
                                           	MOVAI	0x03
                                           	MOVRA	_left_key_val
                                           _00140_DS_
                                           ;	.line	211; "MC32F7361.c"	if (KEY_2_1_PIN == 0)
                                           	JBCLR	_IOP1bits,4
                                           	GOTO	_00153_DS_
                                           ;	.line	214; "MC32F7361.c"	delay_ms(10);
                                           	MOVAI	0x0a
                                           	MOVRA	STK02
                                           	MOVAI	0x00
                                           	MOVRA	STK01
                                           	MOVAI	0x00
                                           	MOVRA	STK00
                                           	MOVAI	0x00
                                           	CALL	_delay_ms
                                           ;	.line	215; "MC32F7361.c"	if (KEY_2_1_PIN == 0)
                                           	JBCLR	_IOP1bits,4
                                           	GOTO	_00155_DS_
                                           ;	.line	217; "MC32F7361.c"	right_key_val = RIGHT_KEY_BOTTOM;
                                           	MOVAI	0x06
                                           	MOVRA	_right_key_val
                                           	GOTO	_00155_DS_
                                           _00153_DS_
                                           ;	.line	220; "MC32F7361.c"	else if (KEY_2_2_PIN == 0)
                                           	JBCLR	_IOP1bits,3
                                           	GOTO	_00150_DS_
                                           ;	.line	223; "MC32F7361.c"	delay_ms(10);
                                           	MOVAI	0x0a
                                           	MOVRA	STK02
                                           	MOVAI	0x00
                                           	MOVRA	STK01
                                           	MOVAI	0x00
                                           	MOVRA	STK00
                                           	MOVAI	0x00
                                           	CALL	_delay_ms
                                           ;	.line	224; "MC32F7361.c"	if (KEY_2_2_PIN == 0)
                                           	JBCLR	_IOP1bits,3
                                           	GOTO	_00155_DS_
                                           ;	.line	226; "MC32F7361.c"	right_key_val = RIGHT_KEY_MID;
                                           	MOVAI	0x05
                                           	MOVRA	_right_key_val
                                           	GOTO	_00155_DS_
                                           _00150_DS_
                                           ;	.line	229; "MC32F7361.c"	else if (KEY_2_3_PIN == 0)
                                           	JBCLR	_IOP1bits,2
                                           	GOTO	_00155_DS_
                                           ;	.line	232; "MC32F7361.c"	delay_ms(10);
                                           	MOVAI	0x0a
                                           	MOVRA	STK02
                                           	MOVAI	0x00
                                           	MOVRA	STK01
                                           	MOVAI	0x00
                                           	MOVRA	STK00
                                           	MOVAI	0x00
                                           	CALL	_delay_ms
                                           ;	.line	233; "MC32F7361.c"	if (KEY_2_3_PIN == 0)
                                           	JBCLR	_IOP1bits,2
                                           	GOTO	_00155_DS_
                                           ;	.line	235; "MC32F7361.c"	right_key_val = RIGHT_KEY_UP;
                                           	MOVAI	0x04
                                           	MOVRA	_right_key_val
                                           _00155_DS_
                                           ;	.line	238; "MC32F7361.c"	}
                                           	RETURN	
                                           ; exit point of _key_scan
                                           
                                           ;***
                                           ;  pBlock Stats: dbName = C
                                           ;***
                                           ;entry:  _IO_Init	;Function start
                                           ; 2 exit points
                                           ;has an exit
                                           ;; Starting pCode block
                                           _IO_Init	;Function start
                                           ; 2 exit points
                                           ;	.line	107; "MC32F7361.c"	IOP0 = 0x00;   // io
                                           	CLRR	_IOP0
                                           ;	.line	108; "MC32F7361.c"	OEP0 = 0x3F;   // io 1:out  0:in
                                           	MOVAI	0x3f
                                           	MOVRA	_OEP0
                                           ;	.line	109; "MC32F7361.c"	PUP0 = 0x00;   // io   1:enable  0:disable
                                           	CLRR	_PUP0
                                           ;	.line	110; "MC32F7361.c"	PDP0 = 0x00;   // io   1:enable  0:disable
                                           	CLRR	_PDP0
                                           ;	.line	111; "MC32F7361.c"	P0ADCR = 0x00; // io  1:  0:io
                                           	CLRR	_P0ADCR
                                           ;	.line	113; "MC32F7361.c"	IOP1 = 0x00;   // io
                                           	CLRR	_IOP1
                                           ;	.line	114; "MC32F7361.c"	OEP1 = 0xFF;   // io 1:out  0:in
                                           	MOVAI	0xff
                                           	MOVRA	_OEP1
                                           ;	.line	115; "MC32F7361.c"	PUP1 = 0x00;   // io   1:enable  0:disable
                                           	CLRR	_PUP1
                                           ;	.line	116; "MC32F7361.c"	PDP1 = 0x00;   // io   1:enable  0:disable
                                           	CLRR	_PDP1
                                           ;	.line	117; "MC32F7361.c"	P1ADCR = 0x00; // io  1:  0:io
                                           	CLRR	_P1ADCR
                                           ;	.line	119; "MC32F7361.c"	IOP2 = 0x00; // io
                                           	CLRR	_IOP2
                                           ;	.line	120; "MC32F7361.c"	OEP2 = 0x0F; // io 1:out  0:in
                                           	MOVAI	0x0f
                                           	MOVRA	_OEP2
                                           ;	.line	121; "MC32F7361.c"	PUP2 = 0x00; // io   1:enable  0:disable
                                           	CLRR	_PUP2
                                           ;	.line	122; "MC32F7361.c"	PDP2 = 0x00; // io   1:enable  0:disablea
                                           	CLRR	_PDP2
                                           ;	.line	124; "MC32F7361.c"	PMOD = 0x00; // P00P01P13 io
                                           	CLRR	_PMOD
                                           ;	.line	131; "MC32F7361.c"	DRVCR = 0x80; // 
                                           	MOVAI	0x80
                                           	MOVRA	_DRVCR
                                           ;	.line	134; "MC32F7361.c"	OEP0 &= ~0x07; // P00P01P02
                                           	MOVAI	0xf8
                                           	ANDRA	_OEP0
                                           ;	.line	135; "MC32F7361.c"	PUP0 |= 0x07;  // P00P01P02
                                           	MOVAI	0x07
                                           	ORRA	_PUP0
                                           ;	.line	136; "MC32F7361.c"	OEP1 &= ~0x1E; // P11P12P13P14
                                           	MOVAI	0xe1
                                           	ANDRA	_OEP1
                                           ;	.line	137; "MC32F7361.c"	PUP1 |= 0x1C;  // P12P13P14
                                           	MOVAI	0x1c
                                           	ORRA	_PUP1
                                           ;	.line	139; "MC32F7361.c"	PMOD |= 0x2A; // P00P01P13
                                           	MOVAI	0x2a
                                           	ORRA	_PMOD
                                           ;	.line	140; "MC32F7361.c"	}
                                           	RETURN	
                                           ; exit point of _IO_Init
                                           
                                           ;***
                                           ;  pBlock Stats: dbName = C
                                           ;***
                                           ;entry:  _CLR_RAM	;Function start
                                           ; 2 exit points
                                           ;has an exit
                                           ;; Starting pCode block
                                           _CLR_RAM	;Function start
                                           ; 2 exit points
                                           ;	.line	92; "MC32F7361.c"	for (FSR0 = 0; FSR0 < 0xff; FSR0++)
                                           	CLRR	_FSR0
                                           ;;unsigned compare: left < lit(0xFF=255), size=1
                                           _00118_DS_
                                           	MOVAI	0xff
                                           	RSUBAR	_FSR0
                                           	JBCLR	PFLAG,0
                                           	GOTO	_00116_DS_
                                           ;;genSkipc:3291: created from rifx:013B5EFC
                                           ;	.line	94; "MC32F7361.c"	INDF0 = 0x00;
                                           	CLRR	_INDF0
                                           ;	.line	92; "MC32F7361.c"	for (FSR0 = 0; FSR0 < 0xff; FSR0++)
                                           	INCR	_FSR0
                                           	GOTO	_00118_DS_
                                           _00116_DS_
                                           ;	.line	96; "MC32F7361.c"	FSR0 = 0xFF;
                                           	MOVAI	0xff
                                           	MOVRA	_FSR0
                                           ;	.line	97; "MC32F7361.c"	INDF0 = 0x00;
                                           	CLRR	_INDF0
                                           ;	.line	98; "MC32F7361.c"	}
                                           	RETURN	
                                           ; exit point of _CLR_RAM
                                           
                                           ;***
                                           ;  pBlock Stats: dbName = C
                                           ;***
                                           ;entry:  _delay_ms	;Function start
                                           ; 2 exit points
                                           ;has an exit
                                           ;11 compiler assigned registers:
                                           ;   r0x101D
                                           ;   STK00
                                           ;   r0x101E
                                           ;   STK01
                                           ;   r0x101F
                                           ;   STK02
                                           ;   r0x1020
                                           ;   r0x1021
                                           ;   r0x1022
                                           ;   r0x1023
                                           ;   r0x1024
                                           ;; Starting pCode block
                                           _delay_ms	;Function start
                                           ; 2 exit points
                                           ;	.line	55; "MC32F7361.c"	void delay_ms(u32 xms)
                                           	MOVRA	r0x101D
                                           	MOVAR	STK00
                                           	MOVRA	r0x101E
                                           	MOVAR	STK01
                                           	MOVRA	r0x101F
                                           	MOVAR	STK02
                                           	MOVRA	r0x1020
                                           _00108_DS_
                                           ;	.line	57; "MC32F7361.c"	while (xms)
                                           	MOVAR	r0x1020
                                           	ORAR	r0x101F
                                           	ORAR	r0x101E
                                           	ORAR	r0x101D
                                           	JBCLR	PFLAG,2
                                           	GOTO	_00111_DS_
                                           ;	.line	60; "MC32F7361.c"	while (i--)
                                           	MOVAI	0x26
                                           	MOVRA	r0x1021
                                           	MOVAI	0x02
                                           	MOVRA	r0x1022
                                           _00105_DS_
                                           	MOVAR	r0x1021
                                           	MOVRA	r0x1023
                                           	MOVAR	r0x1022
                                           	MOVRA	r0x1024
                                           	MOVAI	0xff
                                           	ADDRA	r0x1021
                                           	JBSET	PFLAG,0
                                           	DECR	r0x1022
                                           	MOVAR	r0x1023
                                           	ORAR	r0x1024
                                           	JBCLR	PFLAG,2
                                           	GOTO	_00107_DS_
                                           ;	.line	62; "MC32F7361.c"	Nop();
                                           	nop
                                           	GOTO	_00105_DS_
                                           _00107_DS_
                                           ;	.line	64; "MC32F7361.c"	xms--;
                                           	MOVAI	0xff
                                           	ADDRA	r0x1020
                                           	MOVAI	0xff
                                           	JBSET	PFLAG,0
                                           	ADDRA	r0x101F
                                           	MOVAI	0xff
                                           	JBSET	PFLAG,0
                                           	ADDRA	r0x101E
                                           	MOVAI	0xff
                                           	JBSET	PFLAG,0
                                           	ADDRA	r0x101D
                                           	GOTO	_00108_DS_
                                           _00111_DS_
                                           ;	.line	66; "MC32F7361.c"	}
                                           	RETURN	
                                           ; exit point of _delay_ms
                                           
                                           
                                           ;	code size estimation:
                                           ;	 1619+    0 =  1619 instructions ( 3238 byte)
                                           
                                           	end


MEMORY USAGE MAP ('X' = Used,  '-' = Unused)

0000 : XX-------------- XXXXXXXXXXXXXXXX XXXXXXXXXXXXXXXX XXXXXXXXXXXXXXXX
0040 : XXXXXXXXXXXXXXXX XXXXXXXXXXXXXXXX XXXXXXXXXXXXXXXX XXXXXXXXXXXXXXXX
0080 : XXXXXXXXXXXXXXXX XXXXXXXXXXXXXXXX XXXXXXXXXXXXXXXX XXXXXXXXXXXXXXXX
00C0 : XXXXXXXXXXXXXXXX XXXXXXXXXXXXXXXX XXXXXXXXXXXXXXXX XXXXXXXXXXXXXXXX
0100 : XXXXXXXXXXXXXXXX XXXXXXXXXXXXXXXX XXXXXXXXXXXXXXXX XXXXXXXXXXXXXXXX
0140 : XXXXXXXXXXXXXXXX XXXXXXXXXXXXXXXX XXXXXXXXXXXXXXXX XXXXXXXXXXXXXXXX
0180 : XXXXXXXXXXXXXXXX XXXXXXXXXXXXXXXX XXXXXXXXXXXXXXXX XXXXXXXXXXXXXXXX
01C0 : XXXXXXXXXXXXXXXX XXXXXXXXXXXXXXXX XXXXXXXXXXXXXXXX XXXXXXXXXXXXXXXX
0200 : XXXXXXXXXXXXXXXX XXXXXXXXXXXXXXXX XXXXXXXXXXXXXXXX XXXXXXXXXXXXXXXX
0240 : XXXXXXXXXXXXXXXX XXXXXXXXXXXXXXXX XXXXXXXXXXXXXXXX XXXXXXXXXXXXXXXX
0280 : XXXXXXXXXXXXXXXX XXXXXXXXXXXXXXXX XXXXXXXXXXXXXXXX XXXXXXXXXXXXXXXX
02C0 : XXXXXXXXXXXXXXXX XXXXXXXXXXXXXXXX XXXXXXXXXXXXXXXX XXXXXXXXXXXXXXXX
0300 : XXXXXXXXXXXXXXXX XXXXXXXXXXXXXXXX XXXXXXXXXXXXXXXX XXXXXXXXXXXXXXXX
0340 : XXXXXXXXXXXXXXXX XXXXXXXXXXXXXXXX XXXXXXXXXXXXXXXX XXXXXXXXXXXXXXXX
0380 : XXXXXXXXXXXXXXXX XXXXXXXXXXXXXXXX XXXXXXXXXXXXXXXX XXXXXXXXXXXXXXXX
03C0 : XXXXXXXXXXXXXXXX XXXXXXXXXXXXXXXX XXXXXXXXXXXXXXXX XXXXXXXXXXXXXXXX
0400 : XXXXXXXXXXXXXXXX XXXXXXXXXXXXXXXX XXXXXXXXXXXXXXXX XXXXXXXXXXXXXXXX
0440 : XXXXXXXXXXXXXXXX XXXXXXXXXXXXXXXX XXXXXXXXXXXXXXXX XXXXXXXXXXXXXXXX
0480 : XXXXXXXXXXXXXXXX XXXXXXXXXXXXXXXX XXXXXXXXXXXXXXXX XXXXXXXXXXXXXXXX
04C0 : XXXXXXXXXXXXXXXX XXXXXXXXXXXXXXXX XXXXXXXXXXXXXXXX XXXXXXXXXXXXXXXX
0500 : XXXXXXXXXXXXXXXX XXXXXXXXXXXXXXXX XXXXXXXXXXXXXXXX XXXXXXXXXXXXXXXX
0540 : XXXXXXXXXXXXXXXX XXXXXXXXXXXXXXXX XXXXXXXXXXXXXXXX XXXXXXXXXXXXXXXX
0580 : XXXXXXXXXXXXXXXX XXXXXXXXXXXXXXXX XXXXXXXXXXXXXXXX XXXXXXXXXXXXXXXX
05C0 : XXXXXXXXXXXXXXXX XXXXXXXXXXXXXXXX XXXXXXXXXXXXXXXX XXXXXXXXXXXXXXXX
0600 : XXXXXXXXXXXXXXXX XXXXXXXXXXXXXXXX XXXXXXXXXXXXXXXX XXXXXXXXXXXXXXXX
0640 : XXXXXXXXXXXXXXXX XXXXXXXXXXXXXXXX XXXXXXXXXXXXXXXX XXXXXXXXXXXXXXXX
0680 : XXXXXXXXXXXXXXXX XXXXXXXXXXXXXXXX XXXXXXXXXXXXXXXX XXXXXXXXXXXXXXXX
06C0 : XXXXXXXXXXXXXXXX XXXXXXXXXXXXXXXX XXXXXXXXXXXXXXXX XXXXXXXXXXXXXXXX
0700 : XXXXXXXXXXXXXXXX XXXXXXXXXXXXXXXX XXXXXXXXXXXXXXXX XXXXXXXXXXXXXXXX
0740 : XXXXXXXXXXXXXXXX XXXXXXXXXXXXXXXX XXXXXXXXXXXXXXXX XXXXXXXXXXXXXXXX
0780 : XXXXXXXXXXXXXXXX XXXXXXXXXXXXXXXX XXXXXXXXXXXXXXXX XXXXXXXXXXXXXXXX
07C0 : XXXXXXXXXXXXXXXX XXXXXXXXXXXXXXXX XXXXXXXXXXXXXXXX XXXXXXXXXXXXXXXX
0800 : XXXXXXXXXXXXXXXX XXXXXXXXXXXXXXXX XXXXXXXXXXXXXXXX XXXXXXXXXXXXXXXX
0840 : XXXXXXXXXXXXXXXX XXXXXXXXXXXXXXXX XXXXXXXXXXXXXXXX XXXXXXXXXXXXXXXX
0880 : XXXXXXXXXXXXXXXX XXXXXXXXXXXXXXXX XXXXXXXXXXXXXXXX XXXXXXXXXXXXXXXX
08C0 : XXXXXXXXXXXXXXXX XXXXXXXXXXXXXXXX XXXXXXXXXXXXXXXX XXXXXXXXXXXXXXXX
0900 : XXXXXXXXXXXXXXXX XXXXXXXXXXXXXXXX XXXXXXXXXXXXXXXX XXXXXXXXXXXXXXXX
0940 : XXXXXXXXXXXXXXXX XXXXXXXXXXXXXXXX XXXXXXXXXXXXXXXX XXXXXXXXXXXXXXXX
0980 : XXXXXXXXXXXXXXXX XXXXXXXXXXXXXXXX XXXXXXXXXXXXXXXX XXXXXXXXXXXXXXXX
09C0 : XXXXXXXXXXXXXXXX XXXXXXXXXXXXXXXX XXXXXXXXXXXXXXXX XXXXXXXXXXXXXXXX
0A00 : XXXXXXXXXXXXXXXX XXXXXXXXXXXXXXXX XXXXXXXXXXXXXXXX XXXXXXXXXXXXXXXX
0A40 : XXXXXXXXXXXXXXXX XXXXXXXXXXXXXXXX XXXXXXXXXXXXXXXX XXXXXXXXXXXXXXXX
0A80 : XXXXXXXXXXXXXXXX XXXXXXXXXXXXXXXX XXXXXXXXXXXXXXXX XXXXXXXXXXXXXXXX
0AC0 : XXXXXXXXXXXXXXXX XXXXXXXXXXXXXXXX XXXXXXXXXXXXXXXX XXXXXXXXXXXXXXXX
0B00 : XXXXXXXXXXXXXXXX XXXXXXXXXXXXXXXX XXXXXXXXXXXXXXXX XXXXXXXXXXXXXXXX
0B40 : XXXXXXXXXXXXXXXX XXXXXXXXXXXXXXXX XXXXXXXXXXXXXXXX XXXXXXXXXXXXXXXX
0B80 : XXXXXXXXXXXXXXXX XXXXXXXXXXXXXXXX XXXXXXXXXXXXXXXX XXXXXXXXXXXXXXXX
0BC0 : XXXXXXXXXXXXXXXX XXXXXXXXXXXXXXXX XXXXXXXXXXXXXXXX XXXXXXXXXXXXXXXX
0C00 : XXXXXXXXXXXXXXXX XXXXXXXXXXXXXXXX XXXXXXXXXXXXXXXX XXXXXXXXXXXXXXXX
0C40 : XXXXXXXXXXXXXXXX XXXXXXXXXXXXXXXX XXXXXXXXXXXXXXXX XXXXXXXXXXXXXXXX
0C80 : XXXXXXXXXXXXXXXX XXXXXXXXXXXXXXXX XXXXXXXXXXXXXXXX XXXXXXXXXXXXXXXX
0CC0 : XXXXXXXXXXXXXXXX XXXXXXXXXXXXXXXX XXXXXXXXXXXXXXXX XXXXXXXXXXXXXXXX
0D00 : XXXXXXXXXXXXXXXX XXXXXXXXXXXXXXXX XXXXXXXXXXXXXXXX XXXXXXXXXXXXXXXX
0D40 : XXXXXXXXXXXXXXXX XXXXXXXXXXXXXXXX XXXXXXXXXXXXXXXX XXXXXXXXXXXXXXXX
0D80 : XXXXXXXXXXXXXXXX XXXXXXXXXXXXXXXX XXXXXXXXXXXXXXXX XXXXXXXXXXXXXXXX
0DC0 : XXXXXXXXXXXXXXXX XXXXXXXXXXXXXXXX XXXXXXXXXXXXXXXX XXXXXXXXXXXXXXXX
0E00 : XXXXXXXXXXXXXXXX XXXXXXXXXXXXXXXX XXXXXXXXXXXXXXXX XXXXXXXXXXXXXXXX
0E40 : XXXX------------ ---------------- ---------------- ----------------

All other memory blocks unused.

Program Memory Words Used:  1819

